(dp0
S'Ru'
p1
(dp2
S'a'
p3
cnumpy.core.multiarray
_reconstruct
p4
(cnumpy
ndarray
p5
(I0
tp6
S'b'
p7
tp8
Rp9
(I1
(I4
tp10
cnumpy
dtype
p11
(S'f4'
p12
I0
I1
tp13
Rp14
(I3
S'<'
p15
NNNI-1
I-1
I0
tp16
bI00
S'\xa2#\x9aA\xf2\xb0NA\xba\xa0\x9b@\xce\xa5\xc8?'
p17
tp18
bsS'c'
p19
cnumpy.core.multiarray
scalar
p20
(g14
S'\xa3\x1e\xac@'
p21
tp22
Rp23
sg7
g4
(g5
(I0
tp24
g7
tp25
Rp26
(I1
(I4
tp27
g14
I00
S'+\xfbN?g\xf4\x06A\xc9e\xc6A\xea\x95\xbcB'
p28
tp29
bsS'weight'
p30
g20
(g14
S'\x00\x000B'
p31
tp32
Rp33
sS'cu_f'
p34
c__builtin__
complex
p35
(F-0.10499999672174454
F3.2960000038146973
tp36
Rp37
sS'mo_f'
p38
g35
(F-1.4199999570846558
F0.8360000252723694
tp39
Rp40
sS'number_of_electrons'
p41
g20
(g14
S'\x00\x000B'
p42
tp43
Rp44
ssS'Ac+3'
p45
(dp46
g3
g4
(g5
(I0
tp47
g7
tp48
Rp49
(I1
(I4
tp50
g14
I00
S'\xc4\xb1\x0cB\xbd\xe3\xb0A\x16\x13\x03A?\xc6\xe1@'
p51
tp52
bsg19
g20
(g14
S'PkWA'
p53
tp54
Rp55
sg7
g4
(g5
(I0
tp56
g7
tp57
Rp58
(I1
(I4
tp59
g14
I00
S'\x80f\x14?\n\x85Z@\xff\xb2NA\xed\x8d\xcfA'
p60
tp61
bsg30
g20
(g14
S'\x00\x00\xb2B'
p62
tp63
Rp64
sg34
g35
(F-4.99399995803833
F11.798999786376953
tp65
Rp66
sg38
g35
(F-7.724999904632568
F8.472000122070312
tp67
Rp68
sg41
g20
(g14
S'\x00\x00\xacB'
p69
tp70
Rp71
ssS'Ge+4'
p72
(dp73
g3
g4
(g5
(I0
tp74
g7
tp75
Rp76
(I1
(I4
tp77
g14
I00
S'\xda\xacNA\xa5f\xd6@R,\xc2@\x1c\xea[?'
p78
tp79
bsg19
g20
(g14
S'\x08U\xba?'
p80
tp81
Rp82
sg7
g4
(g5
(I0
tp83
g7
tp84
Rp85
(I1
(I4
tp86
g14
I00
S'(a"@\xa7\xcbR>\x08U\xaf@\xe3\xa59A'
p87
tp88
bsg30
g20
(g14
S'\x00\x00\x00B'
p89
tp90
Rp91
sg34
g35
(F-1.1629999876022339
F0.8859999775886536
tp92
Rp93
sg38
g35
(F0.08100000023841858
F1.8009999990463257
tp94
Rp95
sg41
g20
(g14
S'\x00\x00\xe0A'
p96
tp97
Rp98
ssS'F-1'
p99
(dp100
g3
g4
(g5
(I0
tp101
g7
tp102
Rp103
(I1
(I4
tp104
g14
I00
S'\xf7uh@.\xad`@\xa7\\\xa1?\x1c\xd2p?'
p105
tp106
bsg19
g20
(g14
S"\xf6D'?"
p107
tp108
Rp109
sg7
g4
(g5
(I0
tp110
g7
tp111
Rp112
(I1
(I4
tp113
g14
I00
S'\xc6\xe1\xa8@\xca\xc3kA\xa4o\xe2>\xf3_=B'
p114
tp115
bsg30
g20
(g14
S'\x00\x00\x10A'
p116
tp117
Rp118
sg34
g35
(F0.0689999982714653
F0.05299999937415123
tp119
Rp120
sg38
g35
(F0.014000000432133675
F0.009999999776482582
tp121
Rp122
sg41
g20
(g14
S'\x00\x00 A'
p123
tp124
Rp125
ssS'Ni+2'
p126
(dp127
g3
g4
(g5
(I0
tp128
g7
tp129
Rp130
(I1
(I4
tp131
g14
I00
S'e\xaa6A\xe5\xd0\xec@\xb0\x03\xab@U0z?'
p132
tp133
bsg19
g20
(g14
S'\xb6\x84\\?'
p134
tp135
Rp136
sg7
g4
(g5
(I0
tp137
g7
tp138
Rp139
(I1
(I4
tp140
g14
I00
S'jMk@\x11\xc7z>\xcf\xf7\rA\x01M\xb1A'
p141
tp142
bsg30
g20
(g14
S'\x00\x00\xe0A'
p143
tp144
Rp145
sg34
g35
(F-2.9560000896453857
F0.5090000033378601
tp146
Rp147
sg38
g35
(F0.2849999964237213
F1.1130000352859497
tp148
Rp149
sg41
g20
(g14
S'\x00\x00\xd0A'
p150
tp151
Rp152
ssS'Ni+3'
p153
(dp154
g3
g4
(g5
(I0
tp155
g7
tp156
Rp157
(I1
(I4
tp158
g14
I00
S'V},A\x1bG\xf8@ZG\xa7@w\xdcX?'
p159
tp160
bsg19
g20
(g14
S'\x8f\xa7\xc5>'
p161
tp162
Rp163
sg7
g4
(g5
(I0
tp164
g7
tp165
Rp166
(I1
(I4
tp167
g14
I00
S'\x84\rc@\xd0~d>8\xa1\xf4@\x08\xbd\x87A'
p168
tp169
bsg30
g20
(g14
S'\x00\x00\xe0A'
p170
tp171
Rp172
sg34
g35
(F-2.9560000896453857
F0.5090000033378601
tp173
Rp174
sg38
g35
(F0.2849999964237213
F1.1130000352859497
tp175
Rp176
sg41
g20
(g14
S'\x00\x00\xc8A'
p177
tp178
Rp179
ssS'Ra'
p180
(dp181
g3
g4
(g5
(I0
tp182
g7
tp183
Rp184
(I1
(I4
tp185
g14
I00
S'P\r\x0fBN@\xb7A\x18\x95GA\x88\x80M@'
p186
tp187
bsg19
g20
(g14
S'\x06\xf0YA'
p188
tp189
Rp190
sg7
g4
(g5
(I0
tp191
g7
tp192
Rp193
(I1
(I4
tp194
g14
I00
S'\x86\xc8\x1d?3\xc4w@\xdc\xe8\x9fA3S\x0eC'
p195
tp196
bsg30
g20
(g14
S'\x00\x00\xb0B'
p197
tp198
Rp199
sg34
g35
(F-4.8979997634887695
F11.295999526977539
tp200
Rp201
sg38
g35
(F-7.619999885559082
F8.104999542236328
tp202
Rp203
sg41
g20
(g14
S'\x00\x00\xb0B'
p204
tp205
Rp206
ssS'Rb'
p207
(dp208
g3
g4
(g5
(I0
tp209
g7
tp210
Rp211
(I1
(I4
tp212
g14
I00
S']m\x89A\xc6K\x1aA\x10z\xa4@\xd3\xbc\xc3?'
p213
tp214
bsg19
g20
(g14
S'\xec/_@'
p215
tp216
Rp217
sg7
g4
(g5
(I0
tp218
g7
tp219
Rp220
(I1
(I4
tp221
g14
I00
S'f\xf7\xe4?S\x85\x8aA\x96\xb2\x8c>\x1a\xef$C'
p222
tp223
bsg30
g20
(g14
S'\x00\x00\x14B'
p224
tp225
Rp226
sg34
g35
(F-0.5740000009536743
F1.6080000400543213
tp227
Rp228
sg38
g35
(F-1.0440000295639038
F2.9730000495910645
tp229
Rp230
sg41
g20
(g14
S'\x00\x00\x14B'
p231
tp232
Rp233
ssS'Sb+3'
p234
(dp235
g3
g4
(g5
(I0
tp236
g7
tp237
Rp238
(I1
(I4
tp239
g14
I00
S'\xd3\xcd\x97A\xc8v\x97A\xd6s\xa3@o\xd7\x93>'
p240
tp241
bsg19
g20
(g14
S'\xc3G\x96@'
p242
tp243
Rp244
sg7
g4
(g5
(I0
tp245
g7
tp246
Rp247
(I1
(I4
tp248
g14
I00
S'P4\xef>\x90\x14\xa7@\xbb\xb8\x9cA\x92\x0b^B'
p249
tp250
bsg30
g20
(g14
S'\x00\x00LB'
p251
tp252
Rp253
sg34
g35
(F-0.28700000047683716
F5.894000053405762
tp254
Rp255
sg38
g35
(F-0.8159999847412109
F1.5460000038146973
tp256
Rp257
sg41
g20
(g14
S'\x00\x00@B'
p258
tp259
Rp260
ssS'Rn'
p261
(dp262
g3
g4
(g5
(I0
tp263
g7
tp264
Rp265
(I1
(I4
tp266
g14
I00
S'\x9d@\x0eB\xb8@\xaaA(\x0f\x00A\x83/\xee@'
p267
tp268
bsg19
g20
(g14
S'J\x0c[A'
p269
tp270
Rp271
sg7
g4
(g5
(I0
tp272
g7
tp273
Rp274
(I1
(I4
tp275
g14
I00
S'\xec\xc0)?\x116\x82@\xda\xac`A<\xfd0B'
p276
tp277
bsg30
g20
(g14
S'\x00\x00\xacB'
p278
tp279
Rp280
sg34
g35
(F-4.7870001792907715
F10.316999435424805
tp281
Rp282
sg38
g35
(F-8.862000465393066
F10.402999877929688
tp283
Rp284
sg41
g20
(g14
S'\x00\x00\xacB'
p285
tp286
Rp287
ssS'Rh'
p288
(dp289
g3
g4
(g5
(I0
tp290
g7
tp291
Rp292
(I1
(I4
tp293
g14
I00
S'\x98]\x9aA\x02\x9aeA\xfa~\x97@\xda\x03\xa5?'
p294
tp295
bsg19
g20
(g14
S'\xfa~\xaa@'
p296
tp297
Rp298
sg7
g4
(g5
(I0
tp299
g7
tp300
Rp301
(I1
(I4
tp302
g14
I00
S'\xaad@?5{\x03A\xcc\xff\xceA`6\xc5B'
p303
tp304
bsg30
g20
(g14
S'\x00\x004B'
p305
tp306
Rp307
sg34
g35
(F-0.07699999958276749
F3.6050000190734863
tp308
Rp309
sg38
g35
(F-1.2869999408721924
F0.9190000295639038
tp310
Rp311
sg41
g20
(g14
S'\x00\x004B'
p312
tp313
Rp314
ssS'Mn+4'
p315
(dp316
g3
g4
(g5
(I0
tp317
g7
tp318
Rp319
(I1
(I4
tp320
g14
I00
S'\x86f\x1fA\xe9\x0e\xff@\xd1\xae0@\xd1\x03_='
p321
tp322
bsg19
g20
(g14
S'\x06\xf6\x80>'
p323
tp324
Rp325
sg7
g4
(g5
(I0
tp326
g7
tp327
Rp328
(I1
(I4
tp329
g14
I00
S"\xe9&\x9b@\x17\r\x91>a\xc3'A\x81\x95\xdcA"
p330
tp331
bsg30
g20
(g14
S'\x00\x00\xc8A'
p332
tp333
Rp334
sg34
g35
(F-0.5680000185966492
F2.808000087738037
tp335
Rp336
sg38
g35
(F0.29499998688697815
F0.7289999723434448
tp337
Rp338
sg41
g20
(g14
S'\x00\x00\xa8A'
p339
tp340
Rp341
ssS'Be'
p342
(dp343
g3
g4
(g5
(I0
tp344
g7
tp345
Rp346
(I1
(I4
tp347
g14
I00
S'a\xc3\xcb?\xc0[\x90?u\x02\n?A\xf13?'
p348
tp349
bsg19
g20
(g14
S'-\xb2\x1d='
p350
tp351
Rp352
sg7
g4
(g5
(I0
tp353
g7
tp354
Rp355
(I1
(I4
tp356
g14
I00
S' \x92.B\xd9_\xee?L\xf7\xceB\x83\xc0\n?'
p357
tp358
bsg30
g20
(g14
S'\x00\x00\x80@'
p359
tp360
Rp361
sg34
g35
(F0.003000000026077032
F0.0010000000474974513
tp362
Rp363
sg38
g35
(F0.0
F0.0
tp364
Rp365
sg41
g20
(g14
S'\x00\x00\x80@'
p366
tp367
Rp368
ssS'Rh+4'
p369
(dp370
g3
g4
(g5
(I0
tp371
g7
tp372
Rp373
(I1
(I4
tp374
g14
I00
S'\x04\xd6\x96A\x8a\xb0_A\x8b7"@\x19\xe2\xb4\xc0'
p375
tp376
bsg19
g20
(g14
S'7\x894A'
p377
tp378
Rp379
sg7
g4
(g5
(I0
tp380
g7
tp381
Rp382
(I1
(I4
tp383
g14
I00
S"m\xc5B?\xc2\xfa\xf3@R\xa7\x9aA\xe7\x1d'\xbc"
p384
tp385
bsg30
g20
(g14
S'\x00\x004B'
p386
tp387
Rp388
sg34
g35
(F-0.07699999958276749
F3.6050000190734863
tp389
Rp390
sg38
g35
(F-1.2869999408721924
F0.9190000295639038
tp391
Rp392
sg41
g20
(g14
S'\x00\x00$B'
p393
tp394
Rp395
ssS'Rh+3'
p396
(dp397
g3
g4
(g5
(I0
tp398
g7
tp399
Rp400
(I1
(I4
tp401
g14
I00
S'+\x07\x97A\xb0\x03bAB\xcfT@d]\xc6\xc0'
p402
tp403
bsg19
g20
(g14
S'\x82\xe2=A'
p404
tp405
Rp406
sg7
g4
(g5
(I0
tp407
g7
tp408
Rp409
(I1
(I4
tp410
g14
I00
S'\x05\xa6C?)\x05\xfb@V\xfd\xa9A\xfd\xbc)\xbc'
p411
tp412
bsg30
g20
(g14
S'\x00\x004B'
p413
tp414
Rp415
sg34
g35
(F-0.07699999958276749
F3.6050000190734863
tp416
Rp417
sg38
g35
(F-1.2869999408721924
F0.9190000295639038
tp418
Rp419
sg41
g20
(g14
S'\x00\x00(B'
p420
tp421
Rp422
ssS'Ba'
p423
(dp424
g3
g4
(g5
(I0
tp425
g7
tp426
Rp427
(I1
(I4
tp428
g14
I00
S'U\xb0\xa2AB`\x9aA?5.A\xa0\x89,@'
p429
tp430
bsg19
g20
(g14
S'xz1@'
p431
tp432
Rp433
sg7
g4
(g5
(I0
tp434
g7
tp435
Rp436
(I1
(I4
tp437
g14
I00
S"\xf2\xd2M@q\x1b\x8d>\x8d\xa8\xa1A\xb63'C"
p438
tp439
bsg30
g20
(g14
S'\x00\x00`B'
p440
tp441
Rp442
sg34
g35
(F-1.3339999914169312
F8.460000038146973
tp443
Rp444
sg38
g35
(F-0.6129999756813049
F2.2820000648498535
tp445
Rp446
sg41
g20
(g14
S'\x00\x00`B'
p447
tp448
Rp449
ssS'Mn+2'
p450
(dp451
g3
g4
(g5
(I0
tp452
g7
tp453
Rp454
(I1
(I4
tp455
g14
I00
S'\xc9\xe5,A\x81\x95\xeb@\x17\xb7a@@\xa4_>'
p456
tp457
bsg19
g20
(g14
S'\xec/\x8b?'
p458
tp459
Rp460
sg7
g4
(g5
(I0
tp461
g7
tp462
Rp463
(I1
(I4
tp464
g14
I00
S'|\xf2\xa8@;\xdf\xaf>\xee|eADK%B'
p465
tp466
bsg30
g20
(g14
S'\x00\x00\xc8A'
p467
tp468
Rp469
sg34
g35
(F-0.5680000185966492
F2.808000087738037
tp470
Rp471
sg38
g35
(F0.29499998688697815
F0.7289999723434448
tp472
Rp473
sg41
g20
(g14
S'\x00\x00\xb8A'
p474
tp475
Rp476
ssS'Mn+3'
p477
(dp478
g3
g4
(g5
(I0
tp479
g7
tp480
Rp481
(I1
(I4
tp482
g14
I00
S'\xfb\x85\x1dA\xef\xe6\xfb@\n.d@\x9a\xb0\xa5>'
p483
tp484
bsg19
g20
(g14
S'\xf6\xb6\xc9>'
p485
tp486
Rp487
sg7
g4
(g5
(I0
tp488
g7
tp489
Rp490
(I1
(I4
tp491
g14
I00
S'\x03`\x9d@\xae\xba\x96>\xd7\x12-AY\x06\xc1A'
p492
tp493
bsg30
g20
(g14
S'\x00\x00\xc8A'
p494
tp495
Rp496
sg34
g35
(F-0.5680000185966492
F2.808000087738037
tp497
Rp498
sg38
g35
(F0.29499998688697815
F0.7289999723434448
tp499
Rp500
sg41
g20
(g14
S'\x00\x00\xb0A'
p501
tp502
Rp503
ssS'Sr+2'
p504
(dp505
g3
g4
(g5
(I0
tp506
g7
tp507
Rp508
(I1
(I4
tp509
g14
I00
S'\xff\xb2\x90Aa2\x02A\x83/$@\xa2\xc5\x08\xc2'
p510
tp511
bsg19
g20
(g14
S')\x9c%B'
p512
tp513
Rp514
sg7
g4
(g5
(I0
tp515
g7
tp516
Rp517
(I1
(I4
tp518
g14
I00
S'B\xcf\xbe?\x0b$KAS\x85\xc4Ae\x19b\xbc'
p519
tp520
bsg30
g20
(g14
S'\x00\x00\x18B'
p521
tp522
Rp523
sg34
g35
(F-0.4650000035762787
F1.8200000524520874
tp524
Rp525
sg38
g35
(F-1.656999945640564
F3.2639999389648438
tp526
Rp527
sg41
g20
(g14
S'\x00\x00\x10B'
p528
tp529
Rp530
ssS'Mo+6'
p531
(dp532
g3
g4
(g5
(I0
tp533
g7
tp534
Rp535
(I1
(I4
tp536
g14
I00
S'\xc8\x18\x8fA\xcd\xcc2An\x86\xd2@\x00\x00\x00\x00'
p537
tp538
bsg19
g20
(g14
S'\x1b\x9c\xb0>'
p539
tp540
Rp541
sg7
g4
(g5
(I0
tp542
g7
tp543
Rp544
(I1
(I4
tp545
g14
I00
S'\xb4\xab\x84?\x94\xb0\x07A4-q=\x00\x00\x00\x00'
p546
tp547
bsg30
g20
(g14
S'\x00\x00(B'
p548
tp549
Rp550
sg34
g35
(F-0.19099999964237213
F2.734999895095825
tp551
Rp552
sg38
g35
(F-1.8250000476837158
F0.6880000233650208
tp553
Rp554
sg41
g20
(g14
S'\x00\x00\x10B'
p555
tp556
Rp557
ssS'Au+3'
p558
(dp559
g3
g4
(g5
(I0
tp560
g7
tp561
Rp562
(I1
(I4
tp563
g14
I00
S'@\x82\xf5A$9\x87AJ{LA\xd7\xc0\xd0@'
p564
tp565
bsg19
g20
(g14
S'~\x8c\x11A'
p566
tp567
Rp568
sg7
g4
(g5
(I0
tp569
g7
tp570
Rp571
(I1
(I4
tp572
g14
I00
S'\xaf%\x9c?\xe0\x84\xda@\xcf\xf9Y>\xa2E\x95A'
p573
tp574
bsg30
g20
(g14
S'\x00\x00\x9eB'
p575
tp576
Rp577
sg34
g35
(F-5.0960001945495605
F7.296999931335449
tp578
Rp579
sg38
g35
(F-2.687999963760376
F8.79800033569336
tp580
Rp581
sg41
g20
(g14
S'\x00\x00\x98B'
p582
tp583
Rp584
ssS'H-1'
p585
(dp586
g3
g4
(g5
(I0
tp587
g7
tp588
Rp589
(I1
(I4
tp590
g14
I00
S'\x1c\xcde?6\xcc\x10?\xb4\xe5\xd4>\x8a\x8f\xef='
p591
tp592
bsg19
g20
(g14
S'\xc5\x90\x1c;'
p593
tp594
Rp595
sg7
g4
(g5
(I0
tp596
g7
tp597
Rp598
(I1
(I4
tp599
g14
I00
S'\x15\x8cTB\xf4\xfdrAt\x93:C4Kd@'
p600
tp601
bsg30
g20
(g14
S'\x00\x00\x80?'
p602
tp603
Rp604
sg34
g35
(F0.0
F0.0
tp605
Rp606
sg38
g35
(F0.0
F0.0
tp607
Rp608
sg41
g20
(g14
S'\x00\x00\x00@'
p609
tp610
Rp611
ssS'Mo+3'
p612
(dp613
g3
g4
(g5
(I0
tp614
g7
tp615
Rp616
(I1
(I4
tp617
g14
I00
S'\xcaT\xa9A\x15\x9d\x91Av\xe0;A\x03\xcf\x13@'
p618
tp619
bsg19
g20
(g14
S'j\xbcf\xc1'
p620
tp621
Rp622
sg7
g4
(g5
(I0
tp623
g7
tp624
Rp625
(I1
(I4
tp626
g14
I00
S'\xe0fq<3\xe1\x83?\xdf\x95\x18A\xac\x0b\xd5A'
p627
tp628
bsg30
g20
(g14
S'\x00\x00(B'
p629
tp630
Rp631
sg34
g35
(F-0.19099999964237213
F2.734999895095825
tp632
Rp633
sg38
g35
(F-1.8250000476837158
F0.6880000233650208
tp634
Rp635
sg41
g20
(g14
S'\x00\x00\x1cB'
p636
tp637
Rp638
ssS'Bk'
p639
(dp640
g3
g4
(g5
(I0
tp641
g7
tp642
Rp643
(I1
(I4
tp644
g14
I00
S'\x04\'\x13BU0\xc6A\x9c"\x8fAms\x87@'
p645
tp646
bsg19
g20
(g14
S'\nhTA'
p647
tp648
Rp649
sg7
g4
(g5
(I0
tp650
g7
tp651
Rp652
(I1
(I4
tp653
g14
I00
S'\xd5\xeb\xe6>\xc7\xf4B@HPNA\x89\x01\xacB'
p654
tp655
bsg30
g20
(g14
S'\x00\x00\xc2B'
p656
tp657
Rp658
sg34
g35
(F-6.498000144958496
F16.316999435424805
tp659
Rp660
sg38
g35
(F-7.989999771118164
F4.9079999923706055
tp661
Rp662
sg41
g20
(g14
S'\x00\x00\xc2B'
p663
tp664
Rp665
ssS'O-1'
p666
(dp667
g3
g4
(g5
(I0
tp668
g7
tp669
Rp670
(I1
(I4
tp671
g14
I00
S'\x96!\x86@]\xe1\xd1?\xe3k\xc3?\xbct\xa2\xc1'
p672
tp673
bsg19
g20
(g14
S'\x94\x87\xafA'
p674
tp675
Rp676
sg7
g4
(g5
(I0
tp677
g7
tp678
Rp679
(I1
(I4
tp680
g14
I00
S'\x80\xb7MA\xf9\x83\x85@T\x12<B\x07\x08f\xbc'
p681
tp682
bsg30
g20
(g14
S'\x00\x00\x00A'
p683
tp684
Rp685
sg34
g35
(F0.04699999839067459
F0.03200000151991844
tp686
Rp687
sg38
g35
(F0.00800000037997961
F0.006000000052154064
tp688
Rp689
sg41
g20
(g14
S'\x00\x00\x10A'
p690
tp691
Rp692
ssS'Br'
p693
(dp694
g3
g4
(g5
(I0
tp695
g7
tp696
Rp697
(I1
(I4
tp698
g14
I00
S'cn\x89A\xac\x8b\xa7@\nh\xb4@\xe1\x0b\x7f@'
p699
tp700
bsg19
g20
(g14
S'0*=@'
p701
tp702
Rp703
sg7
g4
(g5
(I0
tp704
g7
tp705
Rp706
(I1
(I4
tp707
g14
I00
S'\xf7\x06\x0b@\x05\xa3\x84A\xaf\x94\x85>0\xbb%B'
p708
tp709
bsg30
g20
(g14
S'\x00\x00\x0cB'
p710
tp711
Rp712
sg34
g35
(F-0.7670000195503235
F1.2829999923706055
tp713
Rp714
sg38
g35
(F-0.37400001287460327
F2.4560000896453857
tp715
Rp716
sg41
g20
(g14
S'\x00\x00\x0cB'
p717
tp718
Rp719
ssS'Mg+2'
p720
(dp721
g3
g4
(g5
(I0
tp722
g7
tp723
Rp724
(I1
(I4
tp725
g14
I00
S'W\xec_@\x84\x9eu@\x03\t\xaa?\xf0\x85Y?'
p726
tp727
bsg19
g20
(g14
S'>y\xf8>'
p728
tp729
Rp730
sg7
g4
(g5
(I0
tp731
g7
tp732
Rp733
(I1
(I4
tp734
g14
I00
S'\xf5\xb9\n@h"\x98@\xa4p=>\xf2A"A'
p735
tp736
bsg30
g20
(g14
S'\x00\x00@A'
p737
tp738
Rp739
sg34
g35
(F0.16500000655651093
F0.1770000010728836
tp740
Rp741
sg38
g35
(F0.041999999433755875
F0.035999998450279236
tp742
Rp743
sg41
g20
(g14
S'\x00\x00 A'
p744
tp745
Rp746
ssS'Ce+3'
p747
(dp748
g3
g4
(g5
(I0
tp749
g7
tp750
Rp751
(I1
(I4
tp752
g14
I00
S'\xc6m\xa6A\xd5x\x9cA\x8b\xfd>A\xac\xc4\x1c?'
p753
tp754
bsg19
g20
(g14
S'\xb1\xc4\x05@'
p755
tp756
Rp757
sg7
g4
(g5
(I0
tp758
g7
tp759
Rp760
(I1
(I4
tp761
g14
I00
S'\xe5\xb81@\xd2\x18m>\x8fS\x84AC\xad,B'
p762
tp763
bsg30
g20
(g14
S'\x00\x00hB'
p764
tp765
Rp766
sg34
g35
(F-2.1700000762939453
F9.64799976348877
tp767
Rp768
sg38
g35
(F-0.5640000104904175
F2.631999969482422
tp769
Rp770
sg41
g20
(g14
S'\x00\x00\\B'
p771
tp772
Rp773
ssS'Ra+2'
p774
(dp775
g3
g4
(g5
(I0
tp776
g7
tp777
Rp778
(I1
(I4
tp779
g14
I00
S')\xdc\x0cB)\\\xadA\xbd:\xfd@1\xd3\xf4@'
p780
tp781
bsg19
g20
(g14
S'\x8a\xb0XA'
p782
tp783
Rp784
sg7
g4
(g5
(I0
tp785
g7
tp786
Rp787
(I1
(I4
tp788
g14
I00
S'Q\xdb\x1a?\xa7\xe8d@\xb2\x9dIA\xb1\xbf\xeeA'
p789
tp790
bsg30
g20
(g14
S'\x00\x00\xb0B'
p791
tp792
Rp793
sg34
g35
(F-4.8979997634887695
F11.295999526977539
tp794
Rp795
sg38
g35
(F-7.619999885559082
F8.104999542236328
tp796
Rp797
sg41
g20
(g14
S'\x00\x00\xacB'
p798
tp799
Rp800
ssS'Nb'
p801
(dp802
g3
g4
(g5
(I0
tp803
g7
tp804
Rp805
(I1
(I4
tp806
g14
I00
S'\xe2\xe9\x8cA\xfb:@A\xacV\x81@5$b@'
p807
tp808
bsg19
g20
(g14
S'\xd4`p@'
p809
tp810
Rp811
sg7
g4
(g5
(I0
tp812
g7
tp813
Rp814
(I1
(I4
tp815
g14
I00
S'\xaf%\x98?\x89A<A)\xb3Q>f\x97\x8bB'
p816
tp817
bsg30
g20
(g14
S'\x00\x00$B'
p818
tp819
Rp820
sg34
g35
(F-0.24799999594688416
F2.4820001125335693
tp821
Rp822
sg38
g35
(F-2.197000026702881
F0.6209999918937683
tp823
Rp824
sg41
g20
(g14
S'\x00\x00$B'
p825
tp826
Rp827
ssS'Th+4'
p828
(dp829
g3
g4
(g5
(I0
tp830
g7
tp831
Rp832
(I1
(I4
tp833
g14
I00
S'\x1eg\x0cB\xce\x88\xb3A\x92\x91\x1cA\rl\xa9@'
p834
tp835
bsg19
g20
(g14
S'\x18\x04VA'
p836
tp837
Rp838
sg7
g4
(g5
(I0
tp839
g7
tp840
Rp841
(I1
(I4
tp842
g14
I00
S'\x05\x18\x0e?\xc1\xadO@%uWA\\\xa0\xbfA'
p843
tp844
bsg30
g20
(g14
S'\x00\x00\xb4B'
p845
tp846
Rp847
sg34
g35
(F-5.091000080108643
F12.329999923706055
tp848
Rp849
sg38
g35
(F-8.126999855041504
F8.869999885559082
tp850
Rp851
sg41
g20
(g14
S'\x00\x00\xacB'
p852
tp853
Rp854
ssS'Al+3'
p855
(dp856
g3
g4
(g5
(I0
tp857
g7
tp858
Rp859
(I1
(I4
tp860
g14
I00
S'W\x95\x85@p\xceX@\x98\xfa\x99?\xfd3\x07?'
p861
tp862
bsg19
g20
(g14
S'\xed\xef4?'
p863
tp864
Rp865
sg7
g4
(g5
(I0
tp866
g7
tp867
Rp868
(I1
(I4
tp869
g14
I00
S'\xa0\x15\xf8?/\xa8\x84@:>j>X\x90\x04A'
p870
tp871
bsg30
g20
(g14
S'\x00\x00PA'
p872
tp873
Rp874
sg34
g35
(F0.20399999618530273
F0.2460000067949295
tp875
Rp876
sg38
g35
(F0.0560000017285347
F0.052000001072883606
tp877
Rp878
sg41
g20
(g14
S'\x00\x00 A'
p879
tp880
Rp881
ssS'H'
p882
(dp883
g3
g4
(g5
(I0
tp884
g7
tp885
Rp886
(I1
(I4
tp887
g14
I00
S'(\x0fK?\xde\x93G>\x00\x00\x00\x00\x00\x00\x00\x00'
p888
tp889
bsg19
g20
(g14
S'\x00\x00\x00\x00'
p890
tp891
Rp892
sg7
g4
(g5
(I0
tp893
g7
tp894
Rp895
(I1
(I4
tp896
g14
I00
S'\xc1\xb9\xc1A8\xf8\x06@\x00\x00\x00\x00\x00\x00\x00\x00'
p897
tp898
bsg30
g20
(g14
S'\x00\x00\x80?'
p899
tp900
Rp901
sg34
g35
(F0.0
F0.0
tp902
Rp903
sg38
g35
(F0.0
F0.0
tp904
Rp905
sg41
g20
(g14
S'\x00\x00\x80?'
p906
tp907
Rp908
ssS'Ti+2'
p909
(dp910
g3
g4
(g5
(I0
tp911
g7
tp912
Rp913
(I1
(I4
tp914
g14
I00
S'\xe3\xd3\x11AK\xe5\xf3@\r\xe0\x11@d\x04\xb4='
p915
tp916
bsg19
g20
(g14
S'\xf3\xabe?'
p917
tp918
Rp919
sg7
g4
(g5
(I0
tp920
g7
tp921
Rp922
(I1
(I4
tp923
g14
I00
S'\x11\xc7\xf0@\x95H\xea>\xefI\x9cA\x8a\x9fvB'
p924
tp925
bsg30
g20
(g14
S'\x00\x00\xb0A'
p926
tp927
Rp928
sg34
g35
(F0.1889999955892563
F1.8070000410079956
tp929
Rp930
sg38
g35
(F0.24799999594688416
F0.44600000977516174
tp931
Rp932
sg41
g20
(g14
S'\x00\x00\xa0A'
p933
tp934
Rp935
ssS'Ti+3'
p936
(dp937
g3
g4
(g5
(I0
tp938
g7
tp939
Rp940
(I1
(I4
tp941
g14
I00
S'\r\xe0\x8dA\x81\xcf\x0bA\x9b8\xa8@x\xee\xf5?'
p942
tp943
bsg19
g20
(g14
S'\x98nj\xc1'
p944
tp945
Rp946
sg7
g4
(g5
(I0
tp947
g7
tp948
Rp949
(I1
(I4
tp950
g14
I00
S'\x96\xe7a>V\x82\xe1@#g!\xbe\xf9\xa0\x7fA'
p951
tp952
bsg30
g20
(g14
S'\x00\x00\xb0A'
p953
tp954
Rp955
sg34
g35
(F0.1889999955892563
F1.8070000410079956
tp956
Rp957
sg38
g35
(F0.24799999594688416
F0.44600000977516174
tp958
Rp959
sg41
g20
(g14
S'\x00\x00\x98A'
p960
tp961
Rp962
ssS'Ti+4'
p963
(dp964
g3
g4
(g5
(I0
tp965
g7
tp966
Rp967
(I1
(I4
tp968
g14
I00
S'Y\x17\x9cAt\xc1\x03A\xb6\xdb\x00@\x93\xa9\xc2?'
p969
tp970
bsg19
g20
(g14
S'\xe1zT\xc1'
p971
tp972
Rp973
sg7
g4
(g5
(I0
tp974
g7
tp975
Rp976
(I1
(I4
tp977
g14
I00
S'\xab#7>\x1dr\xd5@\x99\xd3\x95\xbet$OA'
p978
tp979
bsg30
g20
(g14
S'\x00\x00\xb0A'
p980
tp981
Rp982
sg34
g35
(F0.1889999955892563
F1.8070000410079956
tp983
Rp984
sg38
g35
(F0.24799999594688416
F0.44600000977516174
tp985
Rp986
sg41
g20
(g14
S'\x00\x00\x90A'
p987
tp988
Rp989
ssS'V+5'
p990
(dp991
g3
g4
(g5
(I0
tp992
g7
tp993
Rp994
(I1
(I4
tp995
g14
I00
S'\xea\x04{A\xf6E\x02A\xcb\xf8\x01@L7\x19\xc1'
p996
tp997
bsg19
g20
(g14
S'/n\xdb?'
p998
tp999
Rp1000
sg7
g4
(g5
(I0
tp1001
g7
tp1002
Rp1003
(I1
(I4
tp1004
g14
I00
S'$\xd3-?\xdc\xd7\xac@\x82\x90\x1fA@\xc2p?'
p1005
tp1006
bsg30
g20
(g14
S'\x00\x00\xb8A'
p1007
tp1008
Rp1009
sg34
g35
(F0.03500000014901161
F2.109999895095825
tp1010
Rp1011
sg38
g35
(F0.2669999897480011
F0.5299999713897705
tp1012
Rp1013
sg41
g20
(g14
S'\x00\x00\x90A'
p1014
tp1015
Rp1016
ssS'Li+1'
p1017
(dp1018
g3
g4
(g5
(I0
tp1019
g7
tp1020
Rp1021
(I1
(I4
tp1022
g14
I00
S'|a2?\xcc\xeeI?\xfb\xcb\xae>\x1b\r >'
p1023
tp1024
bsg19
g20
(g14
S'p\xce\x88<'
p1025
tp1026
Rp1027
sg7
g4
(g5
(I0
tp1028
g7
tp1029
Rp1030
(I1
(I4
tp1031
g14
I00
S'Z\xf5\x93@aT\xfa?\x8a\xb0!?Y\x86!A'
p1032
tp1033
bsg30
g20
(g14
S'\x00\x00@@'
p1034
tp1035
Rp1036
sg34
g35
(F0.0010000000474974513
F0.0
tp1037
Rp1038
sg38
g35
(F0.0
F0.0
tp1039
Rp1040
sg41
g20
(g14
S'\x00\x00\x00@'
p1041
tp1042
Rp1043
ssS'Er+3'
p1044
(dp1045
g3
g4
(g5
(I0
tp1046
g7
tp1047
Rp1048
(I1
(I4
tp1049
g14
I00
S'\xa8\xc6\xd5A\xca2\x9eA\xdchBA\xb0\x8f\xa5@'
p1050
tp1051
bsg19
g20
(g14
S'n\x8b\x96?'
p1052
tp1053
Rp1054
sg7
g4
(g5
(I0
tp1055
g7
tp1056
Rp1057
(I1
(I4
tp1058
g14
I00
S'\x10]\xec?\xc0\x95\x0c>\xc6\xcb\x05A\xe0-\x8fA'
p1059
tp1060
bsg30
g20
(g14
S'\x00\x00\x88B'
p1061
tp1062
Rp1063
sg34
g35
(F-9.732999801635742
F3.937000036239624
tp1064
Rp1065
sg38
g35
(F-0.7229999899864197
F4.958000183105469
tp1066
Rp1067
sg41
g20
(g14
S'\x00\x00\x82B'
p1068
tp1069
Rp1070
ssS'Zn+2'
p1071
(dp1072
g3
g4
(g5
(I0
tp1073
g7
tp1074
Rp1075
(I1
(I4
tp1076
g14
I00
S'\xe7\x8c?A\xc0[\xec@\x07\xf0\xce@\x98n\xb2?'
p1077
tp1078
bsg19
g20
(g14
S'\xf5\xdbG?'
p1079
tp1080
Rp1081
sg7
g4
(g5
(I0
tp1082
g7
tp1083
Rp1084
(I1
(I4
tp1085
g14
I00
S'\x87\xa7?@r\xf9O>\xa9\xa4\xe2@\xc6\xcb\x90A'
p1086
tp1087
bsg30
g20
(g14
S'\x00\x00\xf0A'
p1088
tp1089
Rp1090
sg34
g35
(F-1.6119999885559082
F0.6779999732971191
tp1091
Rp1092
sg38
g35
(F0.22200000286102295
F1.430999994277954
tp1093
Rp1094
sg41
g20
(g14
S'\x00\x00\xe0A'
p1095
tp1096
Rp1097
ssS'U+6'
p1098
(dp1099
g3
g4
(g5
(I0
tp1100
g7
tp1101
Rp1102
(I1
(I4
tp1103
g14
I00
S'Rg\x0bB4\x11\xb6A\x8d(`A\x08w\x9b?'
p1104
tp1105
bsg19
g20
(g14
S'\xfc\xa9RA'
p1106
tp1107
Rp1108
sg7
g4
(g5
(I0
tp1109
g7
tp1110
Rp1111
(I1
(I4
tp1112
g14
I00
S'\xee\xcf\x01?\xad\xfa8@\xc3\xd3RA\x15\x9d\xc9A'
p1113
tp1114
bsg30
g20
(g14
S'\x00\x00\xb8B'
p1115
tp1116
Rp1117
sg34
g35
(F-5.359000205993652
F13.409000396728516
tp1118
Rp1119
sg38
g35
(F-10.67300033569336
F9.653999328613281
tp1120
Rp1121
sg41
g20
(g14
S'\x00\x00\xacB'
p1122
tp1123
Rp1124
ssS'Os'
p1125
(dp1126
g3
g4
(g5
(I0
tp1127
g7
tp1128
Rp1129
(I1
(I4
tp1130
g14
I00
S'\xe4\x83\xe1Ap=\x81AT\xe3nA\xe4\xa0\xb5@'
p1131
tp1132
bsg19
g20
(g14
S'\x0c\x020A'
p1133
tp1134
Rp1135
sg7
g4
(g5
(I0
tp1136
g7
tp1137
Rp1138
(I1
(I4
tp1139
g14
I00
S'\x0e\x84\xd0?\xf3\xab\x0fA%\xec\xc3>\xa7\xa8@B'
p1140
tp1141
bsg30
g20
(g14
S'\x00\x00\x98B'
p1142
tp1143
Rp1144
sg34
g35
(F-5.580999851226807
F6.2210001945495605
tp1145
Rp1146
sg38
g35
(F-1.815999984741211
F7.605000019073486
tp1147
Rp1148
sg41
g20
(g14
S'\x00\x00\x98B'
p1149
tp1150
Rp1151
ssS'Si+4'
p1152
(dp1153
g3
g4
(g5
(I0
tp1154
g7
tp1155
Rp1156
(I1
(I4
tp1157
g14
I00
S'\xc3\r\x8e@S\x05M@\\\xe6\x98?lC\xd5>'
p1158
tp1159
bsg19
g20
(g14
S'R\r??'
p1160
tp1161
Rp1162
sg7
g4
(g5
(I0
tp1163
g7
tp1164
Rp1165
(I1
(I4
tp1166
g14
I00
S'>"\xd2?&\x01\\@\xbf\x0e\\>\xb3\xea\xd4@'
p1167
tp1168
bsg30
g20
(g14
S'\x00\x00`A'
p1169
tp1170
Rp1171
sg34
g35
(F0.24400000274181366
F0.33000001311302185
tp1172
Rp1173
sg38
g35
(F0.07199999690055847
F0.07100000232458115
tp1174
Rp1175
sg41
g20
(g14
S'\x00\x00 A'
p1176
tp1177
Rp1178
ssS'Os+4'
p1179
(dp1180
g3
g4
(g5
(I0
tp1181
g7
tp1182
Rp1183
(I1
(I4
tp1184
g14
I00
S'\x1cZ\xf3A\x1d8tA\xcc\xeekA\xa5,\xa2@'
p1185
tp1186
bsg19
g20
(g14
S'\xf2\xef\xcf@'
p1187
tp1188
Rp1189
sg7
g4
(g5
(I0
tp1190
g7
tp1191
Rp1192
(I1
(I4
tp1193
g14
I00
S"0\x81\xaf?\x1e\x1b\xdb@\xd4')>%\x06\x90A"
p1194
tp1195
bsg30
g20
(g14
S'\x00\x00\x98B'
p1196
tp1197
Rp1198
sg34
g35
(F-5.580999851226807
F6.2210001945495605
tp1199
Rp1200
sg38
g35
(F-1.815999984741211
F7.605000019073486
tp1201
Rp1202
sg41
g20
(g14
S'\x00\x00\x90B'
p1203
tp1204
Rp1205
ssS'Cm'
p1206
(dp1207
g3
g4
(g5
(I0
tp1208
g7
tp1209
Rp1210
(I1
(I4
tp1211
g14
I00
S"_\x98\x12B\xdcF\xc3A'1\x8bA\xcc\xee\x86@"
p1212
tp1213
bsg19
g20
(g14
S'\x84\x9eTA'
p1214
tp1215
Rp1216
sg7
g4
(g5
(I0
tp1217
g7
tp1218
Rp1219
(I1
(I4
tp1220
g14
I00
S'\xaa(\xee>\x12\xc2E@\x1f\xf4VA\x80\xf7\xb0B'
p1221
tp1222
bsg30
g20
(g14
S'\x00\x00\xc0B'
p1223
tp1224
Rp1225
sg34
g35
(F-6.176000118255615
F15.633999824523926
tp1226
Rp1227
sg38
g35
(F-8.416000366210938
F4.697000026702881
tp1228
Rp1229
sg41
g20
(g14
S'\x00\x00\xc0B'
p1230
tp1231
Rp1232
ssS'Re'
p1233
(dp1234
g3
g4
(g5
(I0
tp1235
g7
tp1236
Rp1237
(I1
(I4
tp1238
g14
I00
S'\xc8\x18\xe6A\x9d\x80{A\x04\xe7hA\xbc"\xae@'
p1239
tp1240
bsg19
g20
(g14
S"P\x8d'A"
p1241
tp1242
Rp1243
sg7
g4
(g5
(I0
tp1244
g7
tp1245
Rp1246
(I1
(I4
tp1247
g14
I00
S'&\x01\xd6?\xf0y\x11A\xbct\xb3>*XPB'
p1248
tp1249
bsg30
g20
(g14
S'\x00\x00\x96B'
p1250
tp1251
Rp1252
sg34
g35
(F-5.789999961853027
F5.890999794006348
tp1253
Rp1254
sg38
g35
(F-1.5980000495910645
F7.23199987411499
tp1255
Rp1256
sg41
g20
(g14
S'\x00\x00\x96B'
p1257
tp1258
Rp1259
ssS'Nb+5'
p1260
(dp1261
g3
g4
(g5
(I0
tp1262
g7
tp1263
Rp1264
(I1
(I4
tp1265
g14
I00
S'\x95T\x8fA\x9awUA\xb4\xc8,A\xe2\x01\xad>'
p1266
tp1267
bsg19
g20
(g14
S'\xbc\x96\xcc\xc0'
p1268
tp1269
Rp1270
sg7
g4
(g5
(I0
tp1271
g7
tp1272
Rp1273
(I1
(I4
tp1274
g14
I00
S'N\xee\x8f?"\xc6\xeb<Q\x83\x14AK\xc8\xcdA'
p1275
tp1276
bsg30
g20
(g14
S'\x00\x00$B'
p1277
tp1278
Rp1279
sg34
g35
(F-0.24799999594688416
F2.4820001125335693
tp1280
Rp1281
sg38
g35
(F-2.197000026702881
F0.6209999918937683
tp1282
Rp1283
sg41
g20
(g14
S'\x00\x00\x10B'
p1284
tp1285
Rp1286
ssS'Dy+3'
p1287
(dp1288
g3
g4
(g5
(I0
tp1289
g7
tp1290
Rp1291
(I1
(I4
tp1292
g14
I00
S'\xe5P\xccA\xefI\xa2A\xff\xb2?A\xfb\x05\x90@'
p1293
tp1294
bsg19
g20
(g14
S'\x86\x8f0?'
p1295
tp1296
Rp1297
sg7
g4
(g5
(I0
tp1298
g7
tp1299
Rp1300
(I1
(I4
tp1301
g14
I00
S'\xbf}\xfd?A\xd3\x12>t\x98\x15A\xe3\xa5\x9cA'
p1302
tp1303
bsg30
g20
(g14
S'\x00\x00\x84B'
p1304
tp1305
Rp1306
sg34
g35
(F-10.42300033569336
F9.748000144958496
tp1307
Rp1308
sg38
g35
(F-0.6190000176429749
F4.409999847412109
tp1309
Rp1310
sg41
g20
(g14
S'\x00\x00|B'
p1311
tp1312
Rp1313
ssS'Nb+3'
p1314
(dp1315
g3
g4
(g5
(I0
tp1316
g7
tp1317
Rp1318
(I1
(I4
tp1319
g14
I00
S'\xb2\x0c\x9fA\xbc\x85\x90A\x80H0A6<\xf9?'
p1320
tp1321
bsg19
g20
(g14
S'\x8d\x97N\xc1'
p1322
tp1323
Rp1324
sg7
g4
(g5
(I0
tp1325
g7
tp1326
Rp1327
(I1
(I4
tp1328
g14
I00
S'\xe4\x14\x9d<\xc8\x07\x91?\xf6\x97"A\x11\xb6\xe2A'
p1329
tp1330
bsg30
g20
(g14
S'\x00\x00$B'
p1331
tp1332
Rp1333
sg34
g35
(F-0.24799999594688416
F2.4820001125335693
tp1334
Rp1335
sg38
g35
(F-2.197000026702881
F0.6209999918937683
tp1336
Rp1337
sg41
g20
(g14
S'\x00\x00\x18B'
p1338
tp1339
Rp1340
ssS'Hg'
p1341
(dp1342
g3
g4
(g5
(I0
tp1343
g7
tp1344
Rp1345
(I1
(I4
tp1346
g14
I00
S'|r\xa5AgU\x98A\x8fB\xadA\x94\xf6\xbe@'
p1347
tp1348
bsg19
g20
(g14
S'\x0e\xbeIA'
p1349
tp1350
Rp1351
sg7
g4
(g5
(I0
tp1352
g7
tp1353
Rp1354
(I1
(I4
tp1355
g14
I00
S'\x1f\x85\x0b?\xa5,\x07A\xcaT\xc9?dL\x19B'
p1356
tp1357
bsg30
g20
(g14
S'\x00\x00\xa0B'
p1358
tp1359
Rp1360
sg34
g35
(F-4.989999771118164
F7.685999870300293
tp1361
Rp1362
sg38
g35
(F-3.0840001106262207
F9.222999572753906
tp1363
Rp1364
sg41
g20
(g14
S'\x00\x00\xa0B'
p1365
tp1366
Rp1367
ssS'Ge'
p1368
(dp1369
g3
g4
(g5
(I0
tp1370
g7
tp1371
Rp1372
(I1
(I4
tp1373
g14
I00
S'\x1e\xa7\x80A\x8b\xfd\xcb@6<m@F\xb6k@'
p1374
tp1375
bsg19
g20
(g14
S'8g\x08@'
p1376
tp1377
Rp1378
sg7
g4
(g5
(I0
tp1379
g7
tp1380
Rp1381
(I1
(I4
tp1382
g14
I00
S'%u6@\xb7\xd1\x80>\x18&7A\xcd\x0c[B'
p1383
tp1384
bsg30
g20
(g14
S'\x00\x00\x00B'
p1385
tp1386
Rp1387
sg34
g35
(F-1.1629999876022339
F0.8859999775886536
tp1388
Rp1389
sg38
g35
(F0.08100000023841858
F1.8009999990463257
tp1390
Rp1391
sg41
g20
(g14
S'\x00\x00\x00B'
p1392
tp1393
Rp1394
ssS'Cl-1'
p1395
(dp1396
g3
g4
(g5
(I0
tp1397
g7
tp1398
Rp1399
(I1
(I4
tp1400
g14
I00
S'\xfeT\x92A6\xab\xe6@\x12\x14\xd1@\x9f\xab\x15@'
p1401
tp1402
bsg19
g20
(g14
S'%\x06\x83\xc1'
p1403
tp1404
Rp1405
sg7
g4
(g5
(I0
tp1406
g7
tp1407
Rp1408
(I1
(I4
tp1409
g14
I00
S'\xd0D\xd8;D\xfa\x95?\xd6V\x9cA^\xcbqB'
p1410
tp1411
bsg30
g20
(g14
S'\x00\x00\x88A'
p1412
tp1413
Rp1414
sg34
g35
(F0.3479999899864197
F0.7020000219345093
tp1415
Rp1416
sg38
g35
(F0.13199999928474426
F0.1589999943971634
tp1417
Rp1418
sg41
g20
(g14
S'\x00\x00\x90A'
p1419
tp1420
Rp1421
ssS'Ga'
p1422
(dp1423
g3
g4
(g5
(I0
tp1424
g7
tp1425
Rp1426
(I1
(I4
tp1427
g14
I00
S'3\xc4sAQk\xd6@\xbf}\x8b@S\x96=@'
p1428
tp1429
bsg19
g20
(g14
S'\xea\x04\xdc?'
p1430
tp1431
Rp1432
sg7
g4
(g5
(I0
tp1433
g7
tp1434
Rp1435
(I1
(I4
tp1436
g14
I00
S'\x17HD@"\xfdv>\xee|,Al\xa7uB'
p1437
tp1438
bsg30
g20
(g14
S'\x00\x00\xf8A'
p1439
tp1440
Rp1441
sg34
g35
(F-1.3539999723434448
F0.7770000100135803
tp1442
Rp1443
sg38
g35
(F0.16300000250339508
F1.6089999675750732
tp1444
Rp1445
sg41
g20
(g14
S'\x00\x00\xf8A'
p1446
tp1447
Rp1448
ssS'Tm+3'
p1449
(dp1450
g3
g4
(g5
(I0
tp1451
g7
tp1452
Rp1453
(I1
(I4
tp1454
g14
I00
S'fw\xdaA\xf0\xa7\x9aA\xa8WEAxE\xac@'
p1455
tp1456
bsg19
g20
(g14
S'A\xd4\xd1?'
p1457
tp1458
Rp1459
sg7
g4
(g5
(I0
tp1460
g7
tp1461
Rp1462
(I1
(I4
tp1463
g14
I00
S'\x05\xc0\xe4?\xeaB\x0c>\x0e\xf8\xfe@mV\x8aA'
p1464
tp1465
bsg30
g20
(g14
S'\x00\x00\x8aB'
p1466
tp1467
Rp1468
sg34
g35
(F-8.48799991607666
F4.181000232696533
tp1469
Rp1470
sg38
g35
(F-0.7950000166893005
F5.248000144958496
tp1471
Rp1472
sg41
g20
(g14
S'\x00\x00\x84B'
p1473
tp1474
Rp1475
ssS'Pr'
p1476
(dp1477
g3
g4
(g5
(I0
tp1478
g7
tp1479
Rp1480
(I1
(I4
tp1481
g14
I00
S'\x1cZ\xb0A\x8c[\x9dAk+FA\x01\xc14@'
p1482
tp1483
bsg19
g20
(g14
S'0\xbb\x03@'
p1484
tp1485
Rp1486
sg7
g4
(g5
(I0
tp1487
g7
tp1488
Rp1489
(I1
(I4
tp1490
g14
I00
S'\x12\x881@\xc6jc>\x9c"\x86A\xdd\xa4\x0fC'
p1491
tp1492
bsg30
g20
(g14
S'\x00\x00lB'
p1493
tp1494
Rp1495
sg34
g35
(F-2.938999891281128
F10.53499984741211
tp1496
Rp1497
sg38
g35
(F-0.5299999713897705
F2.8450000286102295
tp1498
Rp1499
sg41
g20
(g14
S'\x00\x00lB'
p1500
tp1501
Rp1502
ssS'Pm+3'
p1503
(dp1504
g3
g4
(g5
(I0
tp1505
g7
tp1506
Rp1507
(I1
(I4
tp1508
g14
I00
S'\xeek\xb4A\xeb\xe2\xa0A\xd7\x12AA}\xcb\x04@'
p1509
tp1510
bsg19
g20
(g14
S'o\xf5\x98?'
p1511
tp1512
Rp1513
sg7
g4
(g5
(I0
tp1514
g7
tp1515
Rp1516
(I1
(I4
tp1517
g14
I00
S'\xae\xb6\x1a@;:>>=\nRA\xc2\x97\xdbA'
p1518
tp1519
bsg30
g20
(g14
S'\x00\x00tB'
p1520
tp1521
Rp1522
sg34
g35
(F-4.35699987411499
F11.61400032043457
tp1523
Rp1524
sg38
g35
(F-0.5299999713897705
F3.2249999046325684
tp1525
Rp1526
sg41
g20
(g14
S'\x00\x00hB'
p1527
tp1528
Rp1529
ssS'Bi+3'
p1530
(dp1531
g3
g4
(g5
(I0
tp1532
g7
tp1533
Rp1534
(I1
(I4
tp1535
g14
I00
S'Aq\xaeAS\x05\x9cA\xa8\xd7\x98A^K\xe3@'
p1536
tp1537
bsg19
g20
(g14
S'\xa0\x89GA'
p1538
tp1539
Rp1540
sg7
g4
(g5
(I0
tp1541
g7
tp1542
Rp1543
(I1
(I4
tp1544
g14
I00
S'$(\x9e?I\xba\xc7@\xb5\xa3\xf0>J\x8c\xa2A'
p1545
tp1546
bsg30
g20
(g14
S'\x00\x00\xa6B'
p1547
tp1548
Rp1549
sg34
g35
(F-4.776000022888184
F8.930000305175781
tp1550
Rp1551
sg38
g35
(F-4.861000061035156
F10.559000015258789
tp1552
Rp1553
sg41
g20
(g14
S'\x00\x00\xa0B'
p1554
tp1555
Rp1556
ssS'Pt'
p1557
(dp1558
g3
g4
(g5
(I0
tp1559
g7
tp1560
Rp1561
(I1
(I4
tp1562
g14
I00
S'\x15\x0c\xd8Ax\x1c\x8eA\xdch{A\x12\x14\xb9@'
p1563
tp1564
bsg19
g20
(g14
S'G\x03;A'
p1565
tp1566
Rp1567
sg7
g4
(g5
(I0
tp1568
g7
tp1569
Rp1570
(I1
(I4
tp1571
g14
I00
S'\xb1\xa7\xc1?\xe3\xfc\x0cAAd\xd9>\xf2p\x1aB'
p1572
tp1573
bsg30
g20
(g14
S'\x00\x00\x9cB'
p1574
tp1575
Rp1576
sg34
g35
(F-5.232999801635742
F6.925000190734863
tp1577
Rp1578
sg38
g35
(F-2.3519999980926514
F8.387999534606934
tp1579
Rp1580
sg41
g20
(g14
S'\x00\x00\x9cB'
p1581
tp1582
Rp1583
ssS'Pu'
p1584
(dp1585
g3
g4
(g5
(I0
tp1586
g7
tp1587
Rp1588
(I1
(I4
tp1589
g14
I00
S'\x02\x1a\x12Bfw\xbeAe*\x86A\xa3\xaf^@'
p1590
tp1591
bsg19
g20
(g14
S'e\x19VA'
p1592
tp1593
Rp1594
sg7
g4
(g5
(I0
tp1595
g7
tp1596
Rp1597
(I1
(I4
tp1598
g14
I00
S'B\xaf\xff>\xa0\xe0P@\xc4 oA\xc2\xf5\xd3B'
p1599
tp1600
bsg30
g20
(g14
S'\x00\x00\xbcB'
p1601
tp1602
Rp1603
sg34
g35
(F-5.711999893188477
F14.535999298095703
tp1604
Rp1605
sg38
g35
(F-9.725000381469727
F4.329999923706055
tp1606
Rp1607
sg41
g20
(g14
S'\x00\x00\xbcB'
p1608
tp1609
Rp1610
ssS'Bi+5'
p1611
(dp1612
g3
g4
(g5
(I0
tp1613
g7
tp1614
Rp1615
(I1
(I4
tp1616
g14
I00
S'F%\x06B\xbe\xc1\xc8Ab\xff\x99A0L\xdd@'
p1617
tp1618
bsg19
g20
(g14
S'\xaf\x94\xd9\xc0'
p1619
tp1620
Rp1621
sg7
g4
(g5
(I0
tp1622
g7
tp1623
Rp1624
(I1
(I4
tp1625
g14
I00
S'^\xa2j?!\xe5\xc7><\xda\xb6@\x89AMA'
p1626
tp1627
bsg30
g20
(g14
S'\x00\x00\xa6B'
p1628
tp1629
Rp1630
sg34
g35
(F-4.776000022888184
F8.930000305175781
tp1631
Rp1632
sg38
g35
(F-4.861000061035156
F10.559000015258789
tp1633
Rp1634
sg41
g20
(g14
S'\x00\x00\x9cB'
p1635
tp1636
Rp1637
ssS'U+4'
p1638
(dp1639
g3
g4
(g5
(I0
tp1640
g7
tp1641
Rp1642
(I1
(I4
tp1643
g14
I00
S'j|\rB\xc4B\xb4A2w@A~\x8c\x99@'
p1644
tp1645
bsg19
g20
(g14
S'\nFTA'
p1646
tp1647
Rp1648
sg7
g4
(g5
(I0
tp1649
g7
tp1650
Rp1651
(I1
(I4
tp1652
g14
I00
S'\xc4?\x04?\xe2;C@$(IAe\xaa\xbbA'
p1653
tp1654
bsg30
g20
(g14
S'\x00\x00\xb8B'
p1655
tp1656
Rp1657
sg34
g35
(F-5.359000205993652
F13.409000396728516
tp1658
Rp1659
sg38
g35
(F-10.67300033569336
F9.653999328613281
tp1660
Rp1661
sg41
g20
(g14
S'\x00\x00\xb0B'
p1662
tp1663
Rp1664
ssS'U+3'
p1665
(dp1666
g3
g4
(g5
(I0
tp1667
g7
tp1668
Rp1669
(I1
(I4
tp1670
g14
I00
S'~L\x0eB\x0b5\xb4A\xc8vCA\x05\xdd\xab@'
p1671
tp1672
bsg19
g20
(g14
S'|\xf2TA'
p1673
tp1674
Rp1675
sg7
g4
(g5
(I0
tp1676
g7
tp1677
Rp1678
(I1
(I4
tp1679
g14
I00
S'->\x05?\x16\xdeG@\xd2oKA\x17\xb7\xd2A'
p1680
tp1681
bsg30
g20
(g14
S'\x00\x00\xb8B'
p1682
tp1683
Rp1684
sg34
g35
(F-5.359000205993652
F13.409000396728516
tp1685
Rp1686
sg38
g35
(F-10.67300033569336
F9.653999328613281
tp1687
Rp1688
sg41
g20
(g14
S'\x00\x00\xb2B'
p1689
tp1690
Rp1691
ssS'C'
p1692
(dp1693
g3
g4
(g5
(I0
tp1694
g7
tp1695
Rp1696
(I1
(I4
tp1697
g14
I00
S' \xd2?@\x93\xa9>@\x00\x00\x00\x00\x00\x00\x00\x00'
p1698
tp1699
bsg19
g20
(g14
S'\x00\x00\x00\x00'
p1700
tp1701
Rp1702
sg7
g4
(g5
(I0
tp1703
g7
tp1704
Rp1705
(I1
(I4
tp1706
g14
I00
S'4"\xf0A\xd3\xde8@\x00\x00\x00\x00\x00\x00\x00\x00'
p1707
tp1708
bsg30
g20
(g14
S'\x00\x00\xc0@'
p1709
tp1710
Rp1711
sg34
g35
(F0.0
F0.0
tp1712
Rp1713
sg38
g35
(F0.0
F0.0
tp1714
Rp1715
sg41
g20
(g14
S'\x00\x00\xc0@'
p1716
tp1717
Rp1718
ssS'Cf'
p1719
(dp1720
g3
g4
(g5
(I0
tp1721
g7
tp1722
Rp1723
(I1
(I4
tp1724
g14
I00
S'\x8b\xac\x13B\x93\x98\xc9AR\xa7\x92A\x1c\xce\x87@'
p1725
tp1726
bsg19
g20
(g14
S'EGTA'
p1727
tp1728
Rp1729
sg7
g4
(g5
(I0
tp1730
g7
tp1731
Rp1732
(I1
(I4
tp1733
g14
I00
S'S\x04\xe0>\xfa~@@lxFA\x82\x93\xa7B'
p1734
tp1735
bsg30
g20
(g14
S'\x00\x00\xc4B'
p1736
tp1737
Rp1738
sg34
g35
(F-6.797999858856201
F16.93000030517578
tp1739
Rp1740
sg38
g35
(F-7.683000087738037
F5.10699987411499
tp1741
Rp1742
sg41
g20
(g14
S'\x00\x00\xc4B'
p1743
tp1744
Rp1745
ssS'I-1'
p1746
(dp1747
g3
g4
(g5
(I0
tp1748
g7
tp1749
Rp1750
(I1
(I4
tp1751
g14
I00
S'\x98\xdd\xa1A\xdb\xf9\x97A \xd2\xf9@U\xc18@'
p1752
tp1753
bsg19
g20
(g14
S'\xe9H\x82@'
p1754
tp1755
Rp1756
sg7
g4
(g5
(I0
tp1757
g7
tp1758
Rp1759
(I1
(I4
tp1760
g14
I00
S'\xebs\x8b@\xf8S\xc3>\x0b5\xecA]\xdc\xa9B'
p1761
tp1762
bsg30
g20
(g14
S'\x00\x00TB'
p1763
tp1764
Rp1765
sg34
g35
(F-0.5789999961853027
F6.835000038146973
tp1766
Rp1767
sg38
g35
(F-0.7260000109672546
F1.812000036239624
tp1768
Rp1769
sg41
g20
(g14
S'\x00\x00XB'
p1770
tp1771
Rp1772
ssS'Np'
p1773
(dp1774
g3
g4
(g5
(I0
tp1775
g7
tp1776
Rp1777
(I1
(I4
tp1778
g14
I00
S'\xe6\xbf\x10Bm\xc5\xbcAB>zA\x9e\xef\x85@'
p1779
tp1780
bsg19
g20
(g14
S'\x80\xb7UA'
p1781
tp1782
Rp1783
sg7
g4
(g5
(I0
tp1784
g7
tp1785
Rp1786
(I1
(I4
tp1787
g14
I00
S'\xc7\r\x03?\xe1@P@\x92\xcbuAJ\xfb\xc2B'
p1788
tp1789
bsg30
g20
(g14
S'\x00\x00\xbaB'
p1790
tp1791
Rp1792
sg34
g35
(F-5.5289998054504395
F13.967000007629395
tp1793
Rp1794
sg38
g35
(F-11.157999992370605
F4.1479997634887695
tp1795
Rp1796
sg41
g20
(g14
S'\x00\x00\xbaB'
p1797
tp1798
Rp1799
ssS'Pa'
p1800
(dp1801
g3
g4
(g5
(I0
tp1802
g7
tp1803
Rp1804
(I1
(I4
tp1805
g14
I00
S"\xef\x89\x0fB\xc0[\xbaA\x8e\x06cA'\x88\x85@"
p1806
tp1807
bsg19
g20
(g14
S'\xf3\xdbVA'
p1808
tp1809
Rp1810
sg7
g4
(g5
(I0
tp1811
g7
tp1812
Rp1813
(I1
(I4
tp1814
g14
I00
S'i9\x0c?y\x92Z@Tc\x87A\x83\x80\xd2B'
p1815
tp1816
bsg30
g20
(g14
S'\x00\x00\xb6B'
p1817
tp1818
Rp1819
sg34
g35
(F-5.216000080108643
F12.868000030517578
tp1820
Rp1821
sg38
g35
(F-8.960000038146973
F9.284000396728516
tp1822
Rp1823
sg41
g20
(g14
S'\x00\x00\xb6B'
p1824
tp1825
Rp1826
ssS'Pd'
p1827
(dp1828
g3
g4
(g5
(I0
tp1829
g7
tp1830
Rp1831
(I1
(I4
tp1832
g14
I00
S'\xbb\xa7\x9aA\xf6\x06xA\xacs\xa9@\x98\x18\x1b?'
p1833
tp1834
bsg19
g20
(g14
S'\x80\x82\xa8@'
p1835
tp1836
Rp1837
sg7
g4
(g5
(I0
tp1838
g7
tp1839
Rp1840
(I1
(I4
tp1841
g14
I00
S'\x0e\xdb2?D\xa8\xff@@\xa4\xc9A\x15\xcc\x99B'
p1842
tp1843
bsg30
g20
(g14
S'\x00\x008B'
p1844
tp1845
Rp1846
sg34
g35
(F-0.05900000035762787
F3.934000015258789
tp1847
Rp1848
sg38
g35
(F-1.1770000457763672
F1.0069999694824219
tp1849
Rp1850
sg41
g20
(g14
S'\x00\x008B'
p1851
tp1852
Rp1853
ssS'Ta+5'
p1854
(dp1855
g3
g4
(g5
(I0
tp1856
g7
tp1857
Rp1858
(I1
(I4
tp1859
g14
I00
S'\x04E\xe9A\xc1\xb9\x96A\x92:MA\xe5a\xac@'
p1860
tp1861
bsg19
g20
(g14
S'\xe7\x8c\xe4?'
p1862
tp1863
Rp1864
sg7
g4
(g5
(I0
tp1865
g7
tp1866
Rp1867
(I1
(I4
tp1868
g14
I00
S'\xfb\xe8\xc0?\xe8\x15\xef=r\x16\xca@X\xcaFA'
p1869
tp1870
bsg30
g20
(g14
S'\x00\x00\x92B'
p1871
tp1872
Rp1873
sg34
g35
(F-6.35099983215332
F5.270999908447266
tp1874
Rp1875
sg38
g35
(F-1.2580000162124634
F6.5229997634887695
tp1876
Rp1877
sg41
g20
(g14
S'\x00\x00\x88B'
p1878
tp1879
Rp1880
ssS'Xe'
p1881
(dp1882
g3
g4
(g5
(I0
tp1883
g7
tp1884
Rp1885
(I1
(I4
tp1886
g14
I00
S'\xaeX\xa2A\x08=\x98A\x90\xa0\x0fAR\xb8\xfe?'
p1887
tp1888
bsg19
g20
(g14
S'"\x8em@'
p1889
tp1890
Rp1891
sg7
g4
(g5
(I0
tp1892
g7
tp1893
Rp1894
(I1
(I4
tp1895
g14
I00
S'\xa1g{@\xc5 \xb0>*\xba\xd3A\x17\x88\x80B'
p1896
tp1897
bsg30
g20
(g14
S'\x00\x00XB'
p1898
tp1899
Rp1900
sg34
g35
(F-0.7829999923706055
F7.3480000495910645
tp1901
Rp1902
sg38
g35
(F-0.6840000152587891
F1.9579999446868896
tp1903
Rp1904
sg41
g20
(g14
S'\x00\x00XB'
p1905
tp1906
Rp1907
ssS'Lu+3'
p1908
(dp1909
g3
g4
(g5
(I0
tp1910
g7
tp1911
Rp1912
(I1
(I4
tp1913
g14
I00
S'\xd0\xb3\xe3A\xcf\xf7\x90A\x84|MAG\x03\xb3@'
p1914
tp1915
bsg19
g20
(g14
S'\\r>@'
p1916
tp1917
Rp1918
sg7
g4
(g5
(I0
tp1919
g7
tp1920
Rp1921
(I1
(I4
tp1922
g14
I00
S'\x05Q\xd7?\xfe\xb4\x11>\xea\xca\xea@\xf8\xd3\x82A'
p1923
tp1924
bsg30
g20
(g14
S'\x00\x00\x8eB'
p1925
tp1926
Rp1927
sg34
g35
(F-7.132999897003174
F4.692999839782715
tp1928
Rp1929
sg38
g35
(F-0.9879999756813049
F5.857999801635742
tp1930
Rp1931
sg41
g20
(g14
S'\x00\x00\x88B'
p1932
tp1933
Rp1934
ssS'Pm'
p1935
(dp1936
g3
g4
(g5
(I0
tp1937
g7
tp1938
Rp1939
(I1
(I4
tp1940
g14
I00
S'X\xb9\xbaAB\xe0\x9cA\xdb\xf9QA\x9f\x028@'
p1941
tp1942
bsg19
g20
(g14
S'4\xd7\x01@'
p1943
tp1944
Rp1945
sg7
g4
(g5
(I0
tp1946
g7
tp1947
Rp1948
(I1
(I4
tp1949
g14
I00
S'G\x03$@(\xf0N>I\x9dqA\x93\xb8\x04C'
p1950
tp1951
bsg30
g20
(g14
S'\x00\x00tB'
p1952
tp1953
Rp1954
sg34
g35
(F-4.35699987411499
F11.61400032043457
tp1955
Rp1956
sg38
g35
(F-0.5299999713897705
F3.2249999046325684
tp1957
Rp1958
sg41
g20
(g14
S'\x00\x00tB'
p1959
tp1960
Rp1961
ssS'Tl+1'
p1962
(dp1963
g3
g4
(g5
(I0
tp1964
g7
tp1965
Rp1966
(I1
(I4
tp1967
g14
I00
S'!0\xabAE\xc7\xa3A~\xfb\x95A\xd4\x82\xda@'
p1968
tp1969
bsg19
g20
(g14
S'\xadiHA'
p1970
tp1971
Rp1972
sg7
g4
(g5
(I0
tp1973
g7
tp1974
Rp1975
(I1
(I4
tp1976
g14
I00
S'\x01M\xbc?\xefs\x04?}\xe8\xed@\x1d\xc9\xe6A'
p1977
tp1978
bsg30
g20
(g14
S'\x00\x00\xa2B'
p1979
tp1980
Rp1981
sg34
g35
(F-4.882999897003174
F8.08899974822998
tp1982
Rp1983
sg38
g35
(F-3.555999994277954
F9.659000396728516
tp1984
Rp1985
sg41
g20
(g14
S'\x00\x00\xa0B'
p1986
tp1987
Rp1988
ssS'Pt+4'
p1989
(dp1990
g3
g4
(g5
(I0
tp1991
g7
tp1992
Rp1993
(I1
(I4
tp1994
g14
I00
S'\x8a\xb0\xf7A\xf5\xb9\x7fA\xbe\xc1[Ams\xbd@'
p1995
tp1996
bsg19
g20
(g14
S'\xa0\xa6\xec@'
p1997
tp1998
Rp1999
sg7
g4
(g5
(I0
tp2000
g7
tp2001
Rp2002
(I1
(I4
tp2003
g14
I00
S'\xb9\xc2\x9f?\x85w\xd3@\xf7\xaf,>{\x83\x87A'
p2004
tp2005
bsg30
g20
(g14
S'\x00\x00\x9cB'
p2006
tp2007
Rp2008
sg34
g35
(F-5.232999801635742
F6.925000190734863
tp2009
Rp2010
sg38
g35
(F-2.3519999980926514
F8.387999534606934
tp2011
Rp2012
sg41
g20
(g14
S'\x00\x00\x94B'
p2013
tp2014
Rp2015
ssS'Tl+3'
p2016
(dp2017
g3
g4
(g5
(I0
tp2018
g7
tp2019
Rp2020
(I1
(I4
tp2021
g14
I00
S'\xbc\xf4\xf6A\xa3\x12\x93A\xc0\xec>A\x06/\xe0@'
p2022
tp2023
bsg19
g20
(g14
S'\xdc\xd7\x1cA'
p2024
tp2025
Rp2026
sg7
g4
(g5
(I0
tp2027
g7
tp2028
Rp2029
(I1
(I4
tp2030
g14
I00
S'\x04\xe7\x8c?\x8e;\xd1@\xefT`>\xf2\xb0\x89A'
p2031
tp2032
bsg30
g20
(g14
S'\x00\x00\xa2B'
p2033
tp2034
Rp2035
sg34
g35
(F-4.882999897003174
F8.08899974822998
tp2036
Rp2037
sg38
g35
(F-3.555999994277954
F9.659000396728516
tp2038
Rp2039
sg41
g20
(g14
S'\x00\x00\x9cB'
p2040
tp2041
Rp2042
ssS'In+3'
p2043
(dp2044
g3
g4
(g5
(I0
tp2045
g7
tp2046
Rp2047
(I1
(I4
tp2048
g14
I00
S'\x04\xd6\x98A\xeb\xe2\x90A|~r@\x00\x00\x00\x00'
p2049
tp2050
bsg19
g20
(g14
S'\x19\xe2\x9f@'
p2051
tp2052
Rp2053
sg7
g4
(g5
(I0
tp2054
g7
tp2055
Rp2056
(I1
(I4
tp2057
g14
I00
S'\x8c0\r?\xf1c\xca@B\xe0\x8aA\x00\x00\x00\x00'
p2058
tp2059
bsg30
g20
(g14
S'\x00\x00DB'
p2060
tp2061
Rp2062
sg34
g35
(F-0.12600000202655792
F5.045000076293945
tp2063
Rp2064
sg38
g35
(F-0.9359999895095825
F1.309999942779541
tp2065
Rp2066
sg41
g20
(g14
S'\x00\x008B'
p2067
tp2068
Rp2069
ssS'Sm+3'
p2070
(dp2071
g3
g4
(g5
(I0
tp2072
g7
tp2073
Rp2074
(I1
(I4
tp2075
g14
I00
S'\x054\xb9AF\x14\xa2A$\xb9>A\x98\xc0-@'
p2076
tp2077
bsg19
g20
(g14
S'\xc0_t?'
p2078
tp2079
Rp2080
sg7
g4
(g5
(I0
tp2081
g7
tp2082
Rp2083
(I1
(I4
tp2084
g14
I00
S'\x10@\x14@JB2>{\x83BA\xf6\x97\xc6A'
p2085
tp2086
bsg30
g20
(g14
S'\x00\x00xB'
p2087
tp2088
Rp2089
sg34
g35
(F-5.696000099182129
F12.319999694824219
tp2090
Rp2091
sg38
g35
(F-0.5329999923706055
F3.441999912261963
tp2092
Rp2093
sg41
g20
(g14
S'\x00\x00lB'
p2094
tp2095
Rp2096
ssS'Gd'
p2097
(dp2098
g3
g4
(g5
(I0
tp2099
g7
tp2100
Rp2101
(I1
(I4
tp2102
g14
I00
S'4\x91\xc8An\xa3\x98A\xf9\xa0]A\xa7\xe8b@'
p2103
tp2104
bsg19
g20
(g14
S'\xba\xda\x1a@'
p2105
tp2106
Rp2107
sg7
g4
(g5
(I0
tp2108
g7
tp2109
Rp2110
(I1
(I4
tp2111
g14
I00
S'\xdf7\x10@]Q:>\xfa\xedNA\xc6\xcb\xcaB'
p2112
tp2113
bsg30
g20
(g14
S'\x00\x00\x80B'
p2114
tp2115
Rp2116
sg34
g35
(F-9.241999626159668
F11.946000099182129
tp2117
Rp2118
sg38
g35
(F-0.5640000104904175
F3.9040000438690186
tp2119
Rp2120
sg41
g20
(g14
S'\x00\x00\x80B'
p2121
tp2122
Rp2123
ssS'Ho'
p2124
(dp2125
g3
g4
(g5
(I0
tp2126
g7
tp2127
Rp2128
(I1
(I4
tp2129
g14
I00
S'<=\xd7A\x1cZ\x8aA\xcc\xeehA\x0e\xdbh@'
p2130
tp2131
bsg19
g20
(g14
S'\xba,\x92@'
p2132
tp2133
Rp2134
sg7
g4
(g5
(I0
tp2135
g7
tp2136
Rp2137
(I1
(I4
tp2138
g14
I00
S'<\x83\x04@\xc9\xb0J>\x1b\r7A.P\xb9B'
p2139
tp2140
bsg30
g20
(g14
S'\x00\x00\x86B'
p2141
tp2142
Rp2143
sg34
g35
(F-12.255000114440918
F3.7039999961853027
tp2144
Rp2145
sg38
g35
(F-0.6660000085830688
F4.677999973297119
tp2146
Rp2147
sg41
g20
(g14
S'\x00\x00\x86B'
p2148
tp2149
Rp2150
ssS'Hf'
p2151
(dp2152
g3
g4
(g5
(I0
tp2153
g7
tp2154
Rp2155
(I1
(I4
tp2156
g14
I00
S'\xe9&\xe9A\xf8\xc2rA:#lA\xaa\x9a\x89@'
p2157
tp2158
bsg19
g20
(g14
S'\xfdM\tA'
p2159
tp2160
Rp2161
sg7
g4
(g5
(I0
tp2162
g7
tp2163
Rp2164
(I1
(I4
tp2165
g14
I00
S'K\x93\xea?0\x99\x19A\x01\xdc\x8c>\xd9\x0e\x90B'
p2166
tp2167
bsg30
g20
(g14
S'\x00\x00\x90B'
p2168
tp2169
Rp2170
sg34
g35
(F-6.715000152587891
F4.9770002365112305
tp2171
Rp2172
sg38
g35
(F-1.1180000305175781
F6.184999942779541
tp2173
Rp2174
sg41
g20
(g14
S'\x00\x00\x90B'
p2175
tp2176
Rp2177
ssS'K'
p2178
(dp2179
g3
g4
(g5
(I0
tp2180
g7
tp2181
Rp2182
(I1
(I4
tp2183
g14
I00
S'b\x7f\x03A\xd7\x12\xee@\xa9\xa4\x86?\x9f\xab]?'
p2184
tp2185
bsg19
g20
(g14
S'O\x1e\xb6?'
p2186
tp2187
Rp2188
sg7
g4
(g5
(I0
tp2189
g7
tp2190
Rp2191
(I1
(I4
tp2192
g14
I00
S'\xe9\xb7LAKYF?\xdf/UC\x84\xbc&B'
p2193
tp2194
bsg30
g20
(g14
S'\x00\x00\x98A'
p2195
tp2196
Rp2197
sg34
g35
(F0.36500000953674316
F1.065999984741211
tp2198
Rp2199
sg38
g35
(F0.17900000512599945
F0.25
tp2200
Rp2201
sg41
g20
(g14
S'\x00\x00\x98A'
p2202
tp2203
Rp2204
ssS'He'
p2205
(dp2206
g3
g4
(g5
(I0
tp2207
g7
tp2208
Rp2209
(I1
(I4
tp2210
g14
I00
S'$\x97_?\xaa\x82!?\x9bU\x9f>\xa2E6>'
p2211
tp2212
bsg19
g20
(g14
S'\x17\xb7\xd1;'
p2213
tp2214
Rp2215
sg7
g4
(g5
(I0
tp2216
g7
tp2217
Rp2218
(I1
(I4
tp2219
g14
I00
S'\xc1\xa8\x11A\xd0\xd5V@\xbak\xb7A\xe8j{?'
p2220
tp2221
bsg30
g20
(g14
S'\x00\x00\x00@'
p2222
tp2223
Rp2224
sg34
g35
(F0.0
F0.0
tp2225
Rp2226
sg38
g35
(F0.0
F0.0
tp2227
Rp2228
sg41
g20
(g14
S'\x00\x00\x00@'
p2229
tp2230
Rp2231
ssS'Mg'
p2232
(dp2233
g3
g4
(g5
(I0
tp2234
g7
tp2235
Rp2236
(I1
(I4
tp2237
g14
I00
S'\xebs\xad@\xa0\x1a\x0b@\x0f\x0b\x9d?\xce\xaa\x13@'
p2238
tp2239
bsg19
g20
(g14
S'\x1a\xc0[?'
p2240
tp2241
Rp2242
sg7
g4
(g5
(I0
tp2243
g7
tp2244
Rp2245
(I1
(I4
tp2246
g14
I00
S'\xc3\xf54@\xaf\x85\x9eB8\xf8\xc2>\xca2\xe6@'
p2247
tp2248
bsg30
g20
(g14
S'\x00\x00@A'
p2249
tp2250
Rp2251
sg34
g35
(F0.16500000655651093
F0.1770000010728836
tp2252
Rp2253
sg38
g35
(F0.041999999433755875
F0.035999998450279236
tp2254
Rp2255
sg41
g20
(g14
S'\x00\x00@A'
p2256
tp2257
Rp2258
ssS'Hf+4'
p2259
(dp2260
g3
g4
(g5
(I0
tp2261
g7
tp2262
Rp2263
(I1
(I4
tp2264
g14
I00
S':\x81\xe6AI\xae\x93A\xf0\xa7KA8-\xb3@'
p2265
tp2266
bsg19
g20
(g14
S'Ih\x19@'
p2267
tp2268
Rp2269
sg7
g4
(g5
(I0
tp2270
g7
tp2271
Rp2272
(I1
(I4
tp2273
g14
I00
S'\xaf\xb1\xcb?&\xff\x03>\xedd\xd8@\xea\x95`A'
p2274
tp2275
bsg30
g20
(g14
S'\x00\x00\x90B'
p2276
tp2277
Rp2278
sg34
g35
(F-6.715000152587891
F4.9770002365112305
tp2279
Rp2280
sg38
g35
(F-1.1180000305175781
F6.184999942779541
tp2281
Rp2282
sg41
g20
(g14
S'\x00\x00\x88B'
p2283
tp2284
Rp2285
ssS'Mo'
p2286
(dp2287
g3
g4
(g5
(I0
tp2288
g7
tp2289
Rp2290
(I1
(I4
tp2291
g14
I00
S'\xc3\xf5l@\x82\xe2\x89A\x9c3NA\xac\x8bo@'
p2292
tp2293
bsg19
g20
(g14
S'ff\x8c@'
p2294
tp2295
Rp2296
sg7
g4
(g5
(I0
tp2297
g7
tp2298
Rp2299
(I1
(I4
tp2300
g14
I00
S')\xed\x8d>-C\x8c?b\x100A4\xa2vB'
p2301
tp2302
bsg30
g20
(g14
S'\x00\x00(B'
p2303
tp2304
Rp2305
sg34
g35
(F-0.19099999964237213
F2.734999895095825
tp2306
Rp2307
sg38
g35
(F-1.8250000476837158
F0.6880000233650208
tp2308
Rp2309
sg41
g20
(g14
S'\x00\x00(B'
p2310
tp2311
Rp2312
ssS'Mn'
p2313
(dp2314
g3
g4
(g5
(I0
tp2315
g7
tp2316
Rp2317
(I1
(I4
tp2318
g14
I00
S'\xaa\x824A\x00o\xeb@6<A@V\x9f\x0f@'
p2319
tp2320
bsg19
g20
(g14
S'\x03x\x8b?'
p2321
tp2322
Rp2323
sg7
g4
(g5
(I0
tp2324
g7
tp2325
Rp2326
(I1
(I4
tp2327
g14
I00
S'\xa7\xe8\xaa@\xe9\xb7\xaf>o\xf0\x8eA4\x82\xa7B'
p2328
tp2329
bsg30
g20
(g14
S'\x00\x00\xc8A'
p2330
tp2331
Rp2332
sg34
g35
(F-0.5680000185966492
F2.808000087738037
tp2333
Rp2334
sg38
g35
(F0.29499998688697815
F0.7289999723434448
tp2335
Rp2336
sg41
g20
(g14
S'\x00\x00\xc8A'
p2337
tp2338
Rp2339
ssS'O'
p2340
(dp2341
g3
g4
(g5
(I0
tp2342
g7
tp2343
Rp2344
(I1
(I4
tp2345
g14
I00
S'9\xb4\x1c@\x82\xe2\xb1@\x00\x00\x00\x00\x00\x00\x00\x00'
p2346
tp2347
bsg19
g20
(g14
S'\x00\x00\x00\x00'
p2348
tp2349
Rp2350
sg7
g4
(g5
(I0
tp2351
g7
tp2352
Rp2353
(I1
(I4
tp2354
g14
I00
S'\xb2\x0c\xc6A\xf1c\x84@\x00\x00\x00\x00\x00\x00\x00\x00'
p2355
tp2356
bsg30
g20
(g14
S'\x00\x00\x00A'
p2357
tp2358
Rp2359
sg34
g35
(F0.0
F0.0
tp2360
Rp2361
sg38
g35
(F0.0
F0.0
tp2362
Rp2363
sg41
g20
(g14
S'\x00\x00\x00A'
p2364
tp2365
Rp2366
ssS'Ca+2'
p2367
(dp2368
g3
g4
(g5
(I0
tp2369
g7
tp2370
Rp2371
(I1
(I4
tp2372
g14
I00
S'$(zA%u\xfe@\xc5\xfe\x06A\x15\x8cZ?'
p2373
tp2374
bsg19
g20
(g14
S'\x00\x00n\xc1'
p2375
tp2376
Rp2377
sg7
g4
(g5
(I0
tp2378
g7
tp2379
Rp2380
(I1
(I4
tp2381
g14
I00
S'\xb3{\xf2\xbb\xdf\xe0\x1b?P\xfc$A\x8b\xec\xcfA'
p2382
tp2383
bsg30
g20
(g14
S'\x00\x00\xa0A'
p2384
tp2385
Rp2386
sg34
g35
(F0.3409999907016754
F1.2860000133514404
tp2387
Rp2388
sg38
g35
(F0.2029999941587448
F0.3059999942779541
tp2389
Rp2390
sg41
g20
(g14
S'\x00\x00\x90A'
p2391
tp2392
Rp2393
ssS'S'
p2394
(dp2395
g3
g4
(g5
(I0
tp2396
g7
tp2397
Rp2398
(I1
(I4
tp2399
g14
I00
S'7\x89\xb1@\x1d\xc9&A\x00\x00\x00\x00\x00\x00\x00\x00'
p2400
tp2401
bsg19
g20
(g14
S'\x00\x00\x00\x00'
p2402
tp2403
Rp2404
sg7
g4
(g5
(I0
tp2405
g7
tp2406
Rp2407
(I1
(I4
tp2408
g14
I00
S'\xdc\xd7\x06B\x9c\xa2\xf3?\x00\x00\x00\x00\x00\x00\x00\x00'
p2409
tp2410
bsg30
g20
(g14
S'\x00\x00\x80A'
p2411
tp2412
Rp2413
sg34
g35
(F0.0
F0.0
tp2414
Rp2415
sg38
g35
(F0.0
F0.0
tp2416
Rp2417
sg41
g20
(g14
S'\x00\x00\x80A'
p2418
tp2419
Rp2420
ssS'W'
p2421
(dp2422
g3
g4
(g5
(I0
tp2423
g7
tp2424
Rp2425
(I1
(I4
tp2426
g14
I00
S'\x87\xa7\xe8AH\xe1vAW\xecfA\x91\xd5\xa3@'
p2427
tp2428
bsg19
g20
(g14
S'33\x1eA'
p2429
tp2430
Rp2431
sg7
g4
(g5
(I0
tp2432
g7
tp2433
Rp2434
(I1
(I4
tp2435
g14
I00
S'v2\xdc?I\x9d\x13AA\xb6\xa4>X9dB'
p2436
tp2437
bsg30
g20
(g14
S'\x00\x00\x94B'
p2438
tp2439
Rp2440
sg34
g35
(F-6.047999858856201
F5.577000141143799
tp2441
Rp2442
sg38
g35
(F-1.4210000038146973
F6.872000217437744
tp2443
Rp2444
sg41
g20
(g14
S'\x00\x00\x94B'
p2445
tp2446
Rp2447
ssS'Np+3'
p2448
(dp2449
g3
g4
(g5
(I0
tp2450
g7
tp2451
Rp2452
(I1
(I4
tp2453
g14
I00
S'`\xd4\x0eBl\xe7\xb4A7\xd6OA(\xd5\xad@'
p2454
tp2455
bsg19
g20
(g14
S'\x06\x12TA'
p2456
tp2457
Rp2458
sg7
g4
(g5
(I0
tp2459
g7
tp2460
Rp2461
(I1
(I4
tp2462
g14
I00
S'-\x98\x00?\xbdoB@\x82QBAA\xf1\xcbA'
p2463
tp2464
bsg30
g20
(g14
S'\x00\x00\xbaB'
p2465
tp2466
Rp2467
sg34
g35
(F-5.5289998054504395
F13.967000007629395
tp2468
Rp2469
sg38
g35
(F-11.157999992370605
F4.1479997634887695
tp2470
Rp2471
sg41
g20
(g14
S'\x00\x00\xb4B'
p2472
tp2473
Rp2474
ssS'Ho+3'
p2475
(dp2476
g3
g4
(g5
(I0
tp2477
g7
tp2478
Rp2479
(I1
(I4
tp2480
g14
I00
S'l\t\xd1A\x92\xcb\xa0A*\xa9?A\xf0\xf9\x9d@'
p2481
tp2482
bsg19
g20
(g14
S'\xc6PZ?'
p2483
tp2484
Rp2485
sg7
g4
(g5
(I0
tp2486
g7
tp2487
Rp2488
(I1
(I4
tp2489
g14
I00
S'y\x92\xf4?\xdd\xb3\x0e>\x8a\xcd\x0cA\xf5\xb9\x94A'
p2490
tp2491
bsg30
g20
(g14
S'\x00\x00\x86B'
p2492
tp2493
Rp2494
sg34
g35
(F-12.255000114440918
F3.7039999961853027
tp2495
Rp2496
sg38
g35
(F-0.6660000085830688
F4.677999973297119
tp2497
Rp2498
sg41
g20
(g14
S'\x00\x00\x80B'
p2499
tp2500
Rp2501
ssS'Np+4'
p2502
(dp2503
g3
g4
(g5
(I0
tp2504
g7
tp2505
Rp2506
(I1
(I4
tp2507
g14
I00
S'\x8c\n\x0eB-\xa1\xb4A\xf4lLA\xaa}\x9d@'
p2508
tp2509
bsg19
g20
(g14
S'\xb6bSA'
p2510
tp2511
Rp2512
sg7
g4
(g5
(I0
tp2513
g7
tp2514
Rp2515
(I1
(I4
tp2516
g14
I00
S'\xe8K\xff>^\xd7=@\xa5,?Ai\x00\xb6A'
p2517
tp2518
bsg30
g20
(g14
S'\x00\x00\xbaB'
p2519
tp2520
Rp2521
sg34
g35
(F-5.5289998054504395
F13.967000007629395
tp2522
Rp2523
sg38
g35
(F-11.157999992370605
F4.1479997634887695
tp2524
Rp2525
sg41
g20
(g14
S'\x00\x00\xb2B'
p2526
tp2527
Rp2528
ssS'Zn'
p2529
(dp2530
g3
g4
(g5
(I0
tp2531
g7
tp2532
Rp2533
(I1
(I4
tp2534
g14
I00
S'U0aA\x81\x04\xe1@33\xa5@q=\x1a@'
p2535
tp2536
bsg19
g20
(g14
S'\xc0\xec\xa6?'
p2537
tp2538
Rp2539
sg7
g4
(g5
(I0
tp2540
g7
tp2541
Rp2542
(I1
(I4
tp2543
g14
I00
S'\xf4\xfdP@2\xe6n>\x90\x0f%A\xbc\xd6jB'
p2544
tp2545
bsg30
g20
(g14
S'\x00\x00\xf0A'
p2546
tp2547
Rp2548
sg34
g35
(F-1.6119999885559082
F0.6779999732971191
tp2549
Rp2550
sg38
g35
(F0.22200000286102295
F1.430999994277954
tp2551
Rp2552
sg41
g20
(g14
S'\x00\x00\xf0A'
p2553
tp2554
Rp2555
ssS'Mo+5'
p2556
(dp2557
g3
g4
(g5
(I0
tp2558
g7
tp2559
Rp2560
(I1
(I4
tp2561
g14
I00
S'\x84\x1e\xa8A)\xcb\x90ADi7A\x9a\x99=?'
p2562
tp2563
bsg19
g20
(g14
S'V\x0ee\xc1'
p2564
tp2565
Rp2566
sg7
g4
(g5
(I0
tp2567
g7
tp2568
Rp2569
(I1
(I4
tp2570
g14
I00
S'J\x07k<Y\xdd\x82?\x04\x9c\x0cA\xf8\xc2\xbaA'
p2571
tp2572
bsg30
g20
(g14
S'\x00\x00(B'
p2573
tp2574
Rp2575
sg34
g35
(F-0.19099999964237213
F2.734999895095825
tp2576
Rp2577
sg38
g35
(F-1.8250000476837158
F0.6880000233650208
tp2578
Rp2579
sg41
g20
(g14
S'\x00\x00\x14B'
p2580
tp2581
Rp2582
ssS'Ir'
p2583
(dp2584
g3
g4
(g5
(I0
tp2585
g7
tp2586
Rp2587
(I1
(I4
tp2588
g14
I00
S'op\xdaA8\xd6\x85A\xb4\xc8yA>\xae\xba@'
p2589
tp2590
bsg19
g20
(g14
S'"\x8e7A'
p2591
tp2592
Rp2593
sg7
g4
(g5
(I0
tp2594
g7
tp2595
Rp2596
(I1
(I4
tp2597
g14
I00
S'\x8b\xe0\xcb?6\xd9\rA\x16\xf9\xd5> \x014B'
p2598
tp2599
bsg30
g20
(g14
S'\x00\x00\x9aB'
p2600
tp2601
Rp2602
sg34
g35
(F-5.390999794006348
F6.565999984741211
tp2603
Rp2604
sg38
g35
(F-2.065999984741211
F7.989999771118164
tp2605
Rp2606
sg41
g20
(g14
S'\x00\x00\x9aB'
p2607
tp2608
Rp2609
ssS'Eu'
p2610
(dp2611
g3
g4
(g5
(I0
tp2612
g7
tp2613
Rp2614
(I1
(I4
tp2615
g14
I00
S'\xea\x04\xc5At\xb5\x98A0*\\A\x84\r;@'
p2616
tp2617
bsg19
g20
(g14
S'\x9c\xc4$@'
p2618
tp2619
Rp2620
sg7
g4
(g5
(I0
tp2621
g7
tp2622
Rp2623
(I1
(I4
tp2624
g14
I00
S'[\xd3\x18@]\xdcF>\xd7\x12\\A\x16Y\xf6B'
p2625
tp2626
bsg30
g20
(g14
S'\x00\x00|B'
p2627
tp2628
Rp2629
sg34
g35
(F-7.7179999351501465
F11.276000022888184
tp2630
Rp2631
sg38
g35
(F-0.5419999957084656
F3.6689999103546143
tp2632
Rp2633
sg41
g20
(g14
S'\x00\x00|B'
p2634
tp2635
Rp2636
ssS'Zr'
p2637
(dp2638
g3
g4
(g5
(I0
tp2639
g7
tp2640
Rp2641
(I1
(I4
tp2642
g14
I00
S'\x12\x03\x8fA\x02+/A\xafZ\xad@\xbb\x0fj@'
p2643
tp2644
bsg19
g20
(g14
S'?o\x04@'
p2645
tp2646
Rp2647
sg7
g4
(g5
(I0
tp2648
g7
tp2649
Rp2650
(I1
(I4
tp2651
g14
I00
S'\xdeY\xa3?\xf0\xa7>A\xce\xe3\xf0=MS\xafB'
p2652
tp2653
bsg30
g20
(g14
S'\x00\x00 B'
p2654
tp2655
Rp2656
sg34
g35
(F-0.3140000104904175
F2.244999885559082
tp2657
Rp2658
sg38
g35
(F-2.9649999141693115
F0.5600000023841858
tp2659
Rp2660
sg41
g20
(g14
S'\x00\x00 B'
p2661
tp2662
Rp2663
ssS'Er'
p2664
(dp2665
g3
g4
(g5
(I0
tp2666
g7
tp2667
Rp2668
(I1
(I4
tp2669
g14
I00
S'\x1a@\xddA\x91m\x83Az\xa5oA\x7f\xde>@'
p2670
tp2671
bsg19
g20
(g14
S'it\xbd@'
p2672
tp2673
Rp2674
sg7
g4
(g5
(I0
tp2675
g7
tp2676
Rp2677
(I1
(I4
tp2678
g14
I00
S'5\xb5\x04@\xfb\xe8d>3\xc45A\xf0g\xd3B'
p2679
tp2680
bsg30
g20
(g14
S'\x00\x00\x88B'
p2681
tp2682
Rp2683
sg34
g35
(F-9.732999801635742
F3.937000036239624
tp2684
Rp2685
sg38
g35
(F-0.7229999899864197
F4.958000183105469
tp2686
Rp2687
sg41
g20
(g14
S'\x00\x00\x88B'
p2688
tp2689
Rp2690
ssS'Pu+3'
p2691
(dp2692
g3
g4
(g5
(I0
tp2693
g7
tp2694
Rp2695
(I1
(I4
tp2696
g14
I00
S')\\\x0fB6\xbc\xb5A\x8cJYA\x08 \xb5@'
p2697
tp2698
bsg19
g20
(g14
S'\x83/SA'
p2699
tp2700
Rp2701
sg7
g4
(g5
(I0
tp2702
g7
tp2703
Rp2704
(I1
(I4
tp2705
g14
I00
S'\x88I\xf8>\xf9\x83=@\x94\x878A\x901\xc3A'
p2706
tp2707
bsg30
g20
(g14
S'\x00\x00\xbcB'
p2708
tp2709
Rp2710
sg34
g35
(F-5.711999893188477
F14.535999298095703
tp2711
Rp2712
sg38
g35
(F-9.725000381469727
F4.329999923706055
tp2713
Rp2714
sg41
g20
(g14
S'\x00\x00\xb6B'
p2715
tp2716
Rp2717
ssS'Ni'
p2718
(dp2719
g3
g4
(g5
(I0
tp2720
g7
tp2721
Rp2722
(I1
(I4
tp2723
g14
I00
S'\xcffMA\x10X\xe9@\x9c3\x8e@\xecQ\x18@'
p2724
tp2725
bsg19
g20
(g14
S'd]\x84?'
p2726
tp2727
Rp2728
sg7
g4
(g5
(I0
tp2729
g7
tp2730
Rp2731
(I1
(I4
tp2732
g14
I00
S'X9x@\xf8S\x83> \xd2BA(\xaf\x84B'
p2733
tp2734
bsg30
g20
(g14
S'\x00\x00\xe0A'
p2735
tp2736
Rp2737
sg34
g35
(F-2.9560000896453857
F0.5090000033378601
tp2738
Rp2739
sg38
g35
(F0.2849999964237213
F1.1130000352859497
tp2740
Rp2741
sg41
g20
(g14
S'\x00\x00\xe0A'
p2742
tp2743
Rp2744
ssS'Ir+3'
p2745
(dp2746
g3
g4
(g5
(I0
tp2747
g7
tp2748
Rp2749
(I1
(I4
tp2750
g14
I00
S'&S\xf3A\xc1\xca}A\xfe\xd4YA\x18>\xba@'
p2751
tp2752
bsg19
g20
(g14
S'\xe8v\x04A'
p2753
tp2754
Rp2755
sg7
g4
(g5
(I0
tp2756
g7
tp2757
Rp2758
(I1
(I4
tp2759
g14
I00
S'\xf6\xee\xab?\xaa}\xe3@P\x8bQ>k\x9a\xa2A'
p2760
tp2761
bsg30
g20
(g14
S'\x00\x00\x9aB'
p2762
tp2763
Rp2764
sg34
g35
(F-5.390999794006348
F6.565999984741211
tp2765
Rp2766
sg38
g35
(F-2.065999984741211
F7.989999771118164
tp2767
Rp2768
sg41
g20
(g14
S'\x00\x00\x94B'
p2769
tp2770
Rp2771
ssS'Yb+2'
p2772
(dp2773
g3
g4
(g5
(I0
tp2774
g7
tp2775
Rp2776
(I1
(I4
tp2777
g14
I00
S'\x9a\xf7\xe0A\x1ft\x8dA\x04VUA\xb4\xb0\xa4@'
p2778
tp2779
bsg19
g20
(g14
S'\xdbmm@'
p2780
tp2781
Rp2782
sg7
g4
(g5
(I0
tp2783
g7
tp2784
Rp2785
(I1
(I4
tp2786
g14
I00
S'\xdd{\xe4?-\xcf#>\xbb\xed\x02A\xb8\x1e\xa3A'
p2787
tp2788
bsg30
g20
(g14
S'\x00\x00\x8cB'
p2789
tp2790
Rp2791
sg34
g35
(F-7.701000213623047
F4.432000160217285
tp2792
Rp2793
sg38
g35
(F-0.8840000033378601
F5.547999858856201
tp2794
Rp2795
sg41
g20
(g14
S'\x00\x00\x88B'
p2796
tp2797
Rp2798
ssS'Yb+3'
p2799
(dp2800
g3
g4
(g5
(I0
tp2801
g7
tp2802
Rp2803
(I1
(I4
tp2804
g14
I00
S'4"\xdfAY\x17\x96A\x17\xb7IA>?\xaf@'
p2805
tp2806
bsg19
g20
(g14
S'\x01\xa4\x10@'
p2807
tp2808
Rp2809
sg7
g4
(g5
(I0
tp2810
g7
tp2811
Rp2812
(I1
(I4
tp2813
g14
I00
S'\xc5\xc9\xdd?\xf7\x1e\x0e>\xa2\x9c\xf4@\xbc\x85\x86A'
p2814
tp2815
bsg30
g20
(g14
S'\x00\x00\x8cB'
p2816
tp2817
Rp2818
sg34
g35
(F-7.701000213623047
F4.432000160217285
tp2819
Rp2820
sg38
g35
(F-0.8840000033378601
F5.547999858856201
tp2821
Rp2822
sg41
g20
(g14
S'\x00\x00\x86B'
p2823
tp2824
Rp2825
ssS'Na'
p2826
(dp2827
g3
g4
(g5
(I0
tp2828
g7
tp2829
Rp2830
(I1
(I4
tp2831
g14
I00
S'8g\x98@C\x1cK@*:\xa2?;p\x8e?'
p2832
tp2833
bsg19
g20
(g14
S'V\x0e-?'
p2834
tp2835
Rp2836
sg7
g4
(g5
(I0
tp2837
g7
tp2838
Rp2839
(I1
(I4
tp2840
g14
I00
S'q=R@\xa6y\rA.\x90\xa0>\x8bl\x01C'
p2841
tp2842
bsg30
g20
(g14
S'\x00\x000A'
p2843
tp2844
Rp2845
sg34
g35
(F0.1289999932050705
F0.12399999797344208
tp2846
Rp2847
sg38
g35
(F0.029999999329447746
F0.02500000037252903
tp2848
Rp2849
sg41
g20
(g14
S'\x00\x000A'
p2850
tp2851
Rp2852
ssS'V+2'
p2853
(dp2854
g3
g4
(g5
(I0
tp2855
g7
tp2856
Rp2857
(I1
(I4
tp2858
g14
I00
S'-\xb2!A\xcaT\xeb@%u\x12@}\xae\xb6<'
p2859
tp2860
bsg19
g20
(g14
S'\x16j\x9d?'
p2861
tp2862
Rp2863
sg7
g4
(g5
(I0
tp2864
g7
tp2865
Rp2866
(I1
(I4
tp2867
g14
I00
S'\xb57\xdc@\xa5\xbd\xe1>8g\xa2Aw>\xe6B'
p2868
tp2869
bsg30
g20
(g14
S'\x00\x00\xb8A'
p2870
tp2871
Rp2872
sg34
g35
(F0.03500000014901161
F2.109999895095825
tp2873
Rp2874
sg38
g35
(F0.2669999897480011
F0.5299999713897705
tp2875
Rp2876
sg41
g20
(g14
S'\x00\x00\xa8A'
p2877
tp2878
Rp2879
ssS'V+3'
p2880
(dp2881
g3
g4
(g5
(I0
tp2882
g7
tp2883
Rp2884
(I1
(I4
tp2885
g14
I00
S'\x0e\xe7\x16A\xa5\xbd\xf7@\xcc\xd1\t@x(\x8a<'
p2886
tp2887
bsg19
g20
(g14
S'\xa5\x14(?'
p2888
tp2889
Rp2890
sg7
g4
(g5
(I0
tp2891
g7
tp2892
Rp2893
(I1
(I4
tp2894
g14
I00
S'\xb5\xa6\xcc@RF\xc4>\x84\rsAB\xe0\x7fB'
p2895
tp2896
bsg30
g20
(g14
S'\x00\x00\xb8A'
p2897
tp2898
Rp2899
sg34
g35
(F0.03500000014901161
F2.109999895095825
tp2900
Rp2901
sg38
g35
(F0.2669999897480011
F0.5299999713897705
tp2902
Rp2903
sg41
g20
(g14
S'\x00\x00\xa0A'
p2904
tp2905
Rp2906
ssS'Nd'
p2907
(dp2908
g3
g4
(g5
(I0
tp2909
g7
tp2910
Rp2911
(I1
(I4
tp2912
g14
I00
S'\xdby\xb5ADz\x9dANbLA\xd9|6@'
p2913
tp2914
bsg19
g20
(g14
S'\xe4\x0f\xfe?'
p2915
tp2916
Rp2917
sg7
g4
(g5
(I0
tp2918
g7
tp2919
Rp2920
(I1
(I4
tp2921
g14
I00
S'\x13f*@\xde\xaeW>\xf6(~A+\xe7\tC'
p2922
tp2923
bsg30
g20
(g14
S'\x00\x00pB'
p2924
tp2925
Rp2926
sg34
g35
(F-3.430999994277954
F10.932999610900879
tp2927
Rp2928
sg38
g35
(F-0.5350000262260437
F3.0179998874664307
tp2929
Rp2930
sg41
g20
(g14
S'\x00\x00pB'
p2931
tp2932
Rp2933
ssS'Ne'
p2934
(dp2935
g3
g4
(g5
(I0
tp2936
g7
tp2937
Rp2938
(I1
(I4
tp2939
g14
I00
S'\xa3#}@33G@U0\xba?G\x03\x90?'
p2940
tp2941
bsg19
g20
(g14
S'\xcf\xf7\xb3>'
p2942
tp2943
Rp2944
sg7
g4
(g5
(I0
tp2945
g7
tp2946
Rp2947
(I1
(I4
tp2948
g14
I00
S'\x9aw\x06A\xdcF[@h"l>H\xbf\xadA'
p2949
tp2950
bsg30
g20
(g14
S'\x00\x00 A'
p2951
tp2952
Rp2953
sg34
g35
(F0.09700000286102295
F0.08299999684095383
tp2954
Rp2955
sg38
g35
(F0.020999999716877937
F0.01600000075995922
tp2956
Rp2957
sg41
g20
(g14
S'\x00\x00 A'
p2958
tp2959
Rp2960
ssS'Bi'
p2961
(dp2962
g3
g4
(g5
(I0
tp2963
g7
tp2964
Rp2965
(I1
(I4
tp2966
g14
I00
S'\xc1y\x05BL7OA\x9c\xb3\x84A\xb0\x03\xcf@'
p2967
tp2968
bsg19
g20
(g14
S'N@YA'
p2969
tp2970
Rp2971
sg7
g4
(g5
(I0
tp2972
g7
tp2973
Rp2974
(I1
(I4
tp2975
g14
I00
S'X94?\x8a\x1f;@\xff\xb2\x0cA\x86\t@B'
p2976
tp2977
bsg30
g20
(g14
S'\x00\x00\xa6B'
p2978
tp2979
Rp2980
sg34
g35
(F-4.776000022888184
F8.930000305175781
tp2981
Rp2982
sg38
g35
(F-4.861000061035156
F10.559000015258789
tp2983
Rp2984
sg41
g20
(g14
S'\x00\x00\xa6B'
p2985
tp2986
Rp2987
ssS'Ru+3'
p2988
(dp2989
g3
g4
(g5
(I0
tp2990
g7
tp2991
Rp2992
(I1
(I4
tp2993
g14
I00
S'\xaa\x82\x94A\xb2\x9dTA`7\x15A\xf1\x9d@@'
p2994
tp2995
bsg19
g20
(g14
S'\xda\x1bL\xc0'
p2996
tp2997
Rp2998
sg7
g4
(g5
(I0
tp2999
g7
tp3000
Rp3001
(I1
(I4
tp3002
g14
I00
S'\x8e\xeaX?=\xf2\x05A\xe6\xaf\x90<\x93\x18\xb7A'
p3003
tp3004
bsg30
g20
(g14
S'\x00\x000B'
p3005
tp3006
Rp3007
sg34
g35
(F-0.10499999672174454
F3.2960000038146973
tp3008
Rp3009
sg38
g35
(F-1.4199999570846558
F0.8360000252723694
tp3010
Rp3011
sg41
g20
(g14
S'\x00\x00$B'
p3012
tp3013
Rp3014
ssS'Ga+3'
p3015
(dp3016
g3
g4
(g5
(I0
tp3017
g7
tp3018
Rp3019
(I1
(I4
tp3020
g14
I00
S'n\x12KA\xd1\\\xd6@5$\xc2@E\xd8\x80?'
p3021
tp3022
bsg19
g20
(g14
S'\xa0\x89\xc4?'
p3023
tp3024
Rp3025
sg7
g4
(g5
(I0
tp3026
g7
tp3027
Rp3028
(I1
(I4
tp3029
g14
I00
S'\xf7\x014@\xff[i>?\xa9\xcb@_\x98fA'
p3030
tp3031
bsg30
g20
(g14
S'\x00\x00\xf8A'
p3032
tp3033
Rp3034
sg34
g35
(F-1.3539999723434448
F0.7770000100135803
tp3035
Rp3036
sg38
g35
(F0.16300000250339508
F1.6089999675750732
tp3037
Rp3038
sg41
g20
(g14
S'\x00\x00\xe0A'
p3039
tp3040
Rp3041
ssS'Pt+2'
p3042
(dp3043
g3
g4
(g5
(I0
tp3044
g7
tp3045
Rp3046
(I1
(I4
tp3047
g14
I00
S'B\xbe\xeeAz\xc7\x85A\xdeqSA_F\xcb@'
p3048
tp3049
bsg19
g20
(g14
S'\x13\xa7\x1dA'
p3050
tp3051
Rp3052
sg7
g4
(g5
(I0
tp3053
g7
tp3054
Rp3055
(I1
(I4
tp3056
g14
I00
S'\x85%\xaa?)y\xec@\xdd\xce\x86>r\x8a\xb7A'
p3057
tp3058
bsg30
g20
(g14
S'\x00\x00\x9cB'
p3059
tp3060
Rp3061
sg34
g35
(F-5.232999801635742
F6.925000190734863
tp3062
Rp3063
sg38
g35
(F-2.3519999980926514
F8.387999534606934
tp3064
Rp3065
sg41
g20
(g14
S'\x00\x00\x98B'
p3066
tp3067
Rp3068
ssS'Au+1'
p3069
(dp3070
g3
g4
(g5
(I0
tp3071
g7
tp3072
Rp3073
(I1
(I4
tp3074
g14
I00
S'R\x16\xe0A.\x90\x8eA\xd8_eA\xab\x95\xd2@'
p3075
tp3076
bsg19
g20
(g14
S'\xac\xad3A'
p3077
tp3078
Rp3079
sg7
g4
(g5
(I0
tp3080
g7
tp3081
Rp3082
(I1
(I4
tp3083
g14
I00
S'\xfc5\xad?\xfc\xa9\xf7@3\xa8\xb6>\x02<\xd3A'
p3084
tp3085
bsg30
g20
(g14
S'\x00\x00\x9eB'
p3086
tp3087
Rp3088
sg34
g35
(F-5.0960001945495605
F7.296999931335449
tp3089
Rp3090
sg38
g35
(F-2.687999963760376
F8.79800033569336
tp3091
Rp3092
sg41
g20
(g14
S'\x00\x00\x9cB'
p3093
tp3094
Rp3095
ssS'Ru+4'
p3096
(dp3097
g3
g4
(g5
(I0
tp3098
g7
tp3099
Rp3100
(I1
(I4
tp3101
g14
I00
S'\x9d\x00\x94A\xf3\xdbRA9\xd1\x96@\xc6\xdc\x0b@'
p3102
tp3103
bsg19
g20
(g14
S'\x8b7\xb6?'
p3104
tp3105
Rp3106
sg7
g4
(g5
(I0
tp3107
g7
tp3108
Rp3109
(I1
(I4
tp3110
g14
I00
S'\x876X?e\x01\x02A\xba\xda\xba>\x9e\xcd\xa6A'
p3111
tp3112
bsg30
g20
(g14
S'\x00\x000B'
p3113
tp3114
Rp3115
sg34
g35
(F-0.10499999672174454
F3.2960000038146973
tp3116
Rp3117
sg38
g35
(F-1.4199999570846558
F0.8360000252723694
tp3118
Rp3119
sg41
g20
(g14
S'\x00\x00 B'
p3120
tp3121
Rp3122
ssS'Sc+3'
p3123
(dp3124
g3
g4
(g5
(I0
tp3125
g7
tp3126
Rp3127
(I1
(I4
tp3128
g14
I00
S'\xadiVA\xd2o\x00A4h\xd4?x(\xca?'
p3129
tp3130
bsg19
g20
(g14
S'\x9bU\xd5\xc0'
p3131
tp3132
Rp3133
sg7
g4
(g5
(I0
tp3134
g7
tp3135
Rp3136
(I1
(I4
tp3137
g14
I00
S'<\xda\x98>\x14\xd0\xfe@\xd6s\x92\xbe\x94\x87\x80A'
p3138
tp3139
bsg30
g20
(g14
S'\x00\x00\xa8A'
p3140
tp3141
Rp3142
sg34
g35
(F0.2849999964237213
F1.5329999923706055
tp3143
Rp3144
sg38
g35
(F0.22599999606609344
F0.3720000088214874
tp3145
Rp3146
sg41
g20
(g14
S'\x00\x00\x90A'
p3147
tp3148
Rp3149
ssS'Gd+3'
p3150
(dp3151
g3
g4
(g5
(I0
tp3152
g7
tp3153
Rp3154
(I1
(I4
tp3155
g14
I00
S'\xd6\xc5\xc2A\xcc]\xa3A\xcc\xee=A\xec\xc0m@'
p3156
tp3157
bsg19
g20
(g14
S'\x8d$%?'
p3158
tp3159
Rp3160
sg7
g4
(g5
(I0
tp3161
g7
tp3162
Rp3163
(I1
(I4
tp3164
g14
I00
S'\x86\xac\x08@\xf2A\x1f>N@)A\x8a\x9f\xadA'
p3165
tp3166
bsg30
g20
(g14
S'\x00\x00\x80B'
p3167
tp3168
Rp3169
sg34
g35
(F-9.241999626159668
F11.946000099182129
tp3170
Rp3171
sg38
g35
(F-0.5640000104904175
F3.9040000438690186
tp3172
Rp3173
sg41
g20
(g14
S'\x00\x00tB'
p3174
tp3175
Rp3176
ssS'Fr'
p3177
(dp3178
g3
g4
(g5
(I0
tp3179
g7
tp3180
Rp3181
(I1
(I4
tp3182
g14
I00
S'8\xb8\x0fB\x06p\xb8AjMBA\xb13\x07@'
p3183
tp3184
bsg19
g20
(g14
S'_\x98[A'
p3185
tp3186
Rp3187
sg7
g4
(g5
(I0
tp3188
g7
tp3189
Rp3190
(I1
(I4
tp3191
g14
I00
S'\xf2}%?Y\xa3\x85@s\xd7\xb8A\x1e\xa5\x16C'
p3192
tp3193
bsg30
g20
(g14
S'\x00\x00\xaeB'
p3194
tp3195
Rp3196
sg34
g35
(F-4.833000183105469
F10.802998542785645
tp3197
Rp3198
sg38
g35
(F-7.9120001792907715
F7.754000186920166
tp3199
Rp3200
sg41
g20
(g14
S'\x00\x00\xaeB'
p3201
tp3202
Rp3203
ssS'Cd+2'
p3204
(dp3205
g3
g4
(g5
(I0
tp3206
g7
tp3207
Rp3208
(I1
(I4
tp3209
g14
I00
S'\x116\x99A+\x07\x8aA\xba\x14\x8f@\x00\x00\x00\x00'
p3210
tp3211
bsg19
g20
(g14
S'\xe1\xd1\xa3@'
p3212
tp3213
Rp3214
sg7
g4
(g5
(I0
tp3215
g7
tp3216
Rp3217
(I1
(I4
tp3218
g14
I00
S'k\x11\x19?\xf2\xcd\xd9@M\x04\xa2A\x00\x00\x00\x00'
p3219
tp3220
bsg30
g20
(g14
S'\x00\x00@B'
p3221
tp3222
Rp3223
sg34
g35
(F-0.07900000363588333
F4.6529998779296875
tp3224
Rp3225
sg38
g35
(F-1.0049999952316284
F1.2020000219345093
tp3226
Rp3227
sg41
g20
(g14
S'\x00\x008B'
p3228
tp3229
Rp3230
ssS'Np+6'
p3231
(dp3232
g3
g4
(g5
(I0
tp3233
g7
tp3234
Rp3235
(I1
(I4
tp3236
g14
I00
S'\xed\r\x0cB,\xd4\xb5A\xe36fA8\xdb\xe0?'
p3237
tp3238
bsg19
g20
(g14
S'\xd9\xceQA'
p3239
tp3240
Rp3241
sg7
g4
(g5
(I0
tp3242
g7
tp3243
Rp3244
(I1
(I4
tp3245
g14
I00
S'`\xc8\xfa>C\xe73@\xaeGEA\xcaC\xb5A'
p3246
tp3247
bsg30
g20
(g14
S'\x00\x00\xbaB'
p3248
tp3249
Rp3250
sg34
g35
(F-5.5289998054504395
F13.967000007629395
tp3251
Rp3252
sg38
g35
(F-11.157999992370605
F4.1479997634887695
tp3253
Rp3254
sg41
g20
(g14
S'\x00\x00\xaeB'
p3255
tp3256
Rp3257
ssS'Rb+1'
p3258
(dp3259
g3
g4
(g5
(I0
tp3260
g7
tp3261
Rp3262
(I1
(I4
tp3263
g14
I00
S'\x1e\xa7\x8cA\x15\x1d\xf5@<\xbd\xbc@_\x072@'
p3264
tp3265
bsg19
g20
(g14
S';\x01\x05@'
p3266
tp3267
Rp3268
sg7
g4
(g5
(I0
tp3269
g7
tp3270
Rp3271
(I1
(I4
tp3272
g14
I00
S'\x13a\xdb?0\xbblA\xaf%$>k\xab\xf9A'
p3273
tp3274
bsg30
g20
(g14
S'\x00\x00\x14B'
p3275
tp3276
Rp3277
sg34
g35
(F-0.5740000009536743
F1.6080000400543213
tp3278
Rp3279
sg38
g35
(F-1.0440000295639038
F2.9730000495910645
tp3280
Rp3281
sg41
g20
(g14
S'\x00\x00\x10B'
p3282
tp3283
Rp3284
ssS'Hg+2'
p3285
(dp3286
g3
g4
(g5
(I0
tp3287
g7
tp3288
Rp3289
(I1
(I4
tp3290
g14
I00
S'G\x83\xecA\xe1z\x90A\xfeeMA\x97\xc5\xdc@'
p3291
tp3292
bsg19
g20
(g14
S'_\x07*A'
p3293
tp3294
Rp3295
sg7
g4
(g5
(I0
tp3296
g7
tp3297
Rp3298
(I1
(I4
tp3299
g14
I00
S'\x16\x13\x9b?\xf2\xcd\xe1@.\xc9\x91>P\xfc\xa5A'
p3300
tp3301
bsg30
g20
(g14
S'\x00\x00\xa0B'
p3302
tp3303
Rp3304
sg34
g35
(F-4.989999771118164
F7.685999870300293
tp3305
Rp3306
sg38
g35
(F-3.0840001106262207
F9.222999572753906
tp3307
Rp3308
sg41
g20
(g14
S'\x00\x00\x9cB'
p3309
tp3310
Rp3311
ssS'Fe'
p3312
(dp3313
g3
g4
(g5
(I0
tp3314
g7
tp3315
Rp3316
(I1
(I4
tp3317
g14
I00
S'\xdfO<A\x00o\xeb@\xbaka@\xee|\x13@'
p3318
tp3319
bsg19
g20
(g14
S'$\xb9\x84?'
p3320
tp3321
Rp3322
sg7
g4
(g5
(I0
tp3323
g7
tp3324
Rp3325
(I1
(I4
tp3326
g14
I00
S'\xeeZ\x98@RI\x9d>\xf0\xa7uA\xd1\xc2\x99B'
p3327
tp3328
bsg30
g20
(g14
S'\x00\x00\xd0A'
p3329
tp3330
Rp3331
sg34
g35
(F-1.1790000200271606
F3.2039999961853027
tp3332
Rp3333
sg38
g35
(F0.3009999990463257
F0.8450000286102295
tp3334
Rp3335
sg41
g20
(g14
S'\x00\x00\xd0A'
p3336
tp3337
Rp3338
ssS'Hg+1'
p3339
(dp3340
g3
g4
(g5
(I0
tp3341
g7
tp3342
Rp3343
(I1
(I4
tp3344
g14
I00
S'\xb2\xae\xc8Ax\xfa\x93A=\x1b\x87A\xdbm\xcf@'
p3345
tp3346
bsg19
g20
(g14
S'\xf8S@A'
p3347
tp3348
Rp3349
sg7
g4
(g5
(I0
tp3350
g7
tp3351
Rp3352
(I1
(I4
tp3353
g14
I00
S'\xa7\x91\xb2?g\xd5\xf4@q\x02\xe3>B\xcf\xe1A'
p3354
tp3355
bsg30
g20
(g14
S'\x00\x00\xa0B'
p3356
tp3357
Rp3358
sg34
g35
(F-4.989999771118164
F7.685999870300293
tp3359
Rp3360
sg38
g35
(F-3.0840001106262207
F9.222999572753906
tp3361
Rp3362
sg41
g20
(g14
S'\x00\x00\x9eB'
p3363
tp3364
Rp3365
ssS'Eu+3'
p3366
(dp3367
g3
g4
(g5
(I0
tp3368
g7
tp3369
Rp3370
(I1
(I4
tp3371
g14
I00
S'b\xff\xbdA\xfa\xfe\xa2AI\x9d=A@\xf6P@'
p3372
tp3373
bsg19
g20
(g14
S'^dB?'
p3374
tp3375
Rp3376
sg7
g4
(g5
(I0
tp3377
g7
tp3378
Rp3379
(I1
(I4
tp3380
g14
I00
S"\xc0>\x0e@\xe3\xdf'>\xdb\xf94A\t\xf9\xb7A"
p3381
tp3382
bsg30
g20
(g14
S'\x00\x00|B'
p3383
tp3384
Rp3385
sg34
g35
(F-7.7179999351501465
F11.276000022888184
tp3386
Rp3387
sg38
g35
(F-0.5419999957084656
F3.6689999103546143
tp3388
Rp3389
sg41
g20
(g14
S'\x00\x00pB'
p3390
tp3391
Rp3392
ssS'Eu+2'
p3393
(dp3394
g3
g4
(g5
(I0
tp3395
g7
tp3396
Rp3397
(I1
(I4
tp3398
g14
I00
S'\xe7\x0c\xc0Ak\x9a\x9fA\xba\xda<A\xe5\xd5w@'
p3399
tp3400
bsg19
g20
(g14
S'\xf3\x93\xae?'
p3401
tp3402
Rp3403
sg7
g4
(g5
(I0
tp3404
g7
tp3405
Rp3406
(I1
(I4
tp3407
g14
I00
S'\xf7\xc7\x11@\xd9\xb11>\xec\xc09A\xf3\x1f\xd4A'
p3408
tp3409
bsg30
g20
(g14
S'\x00\x00|B'
p3410
tp3411
Rp3412
sg34
g35
(F-7.7179999351501465
F11.276000022888184
tp3413
Rp3414
sg38
g35
(F-0.5419999957084656
F3.6689999103546143
tp3415
Rp3416
sg41
g20
(g14
S'\x00\x00tB'
p3417
tp3418
Rp3419
ssS'Co+3'
p3420
(dp3421
g3
g4
(g5
(I0
tp3422
g7
tp3423
Rp3424
(I1
(I4
tp3425
g14
I00
S'rh%A"7\xfc@\x0c\x93\x98@U\xc09?'
p3426
tp3427
bsg19
g20
(g14
S'\x04\xc6\x92>'
p3428
tp3429
Rp3430
sg7
g4
(g5
(I0
tp3431
g7
tp3432
Rp3433
(I1
(I4
tp3434
g14
I00
S'\\8z@bet>{\xb1\x05A\xf5\xca\x92A'
p3435
tp3436
bsg30
g20
(g14
S'\x00\x00\xd8A'
p3437
tp3438
Rp3439
sg34
g35
(F-2.4639999866485596
F3.6080000400543213
tp3440
Rp3441
sg38
g35
(F0.29899999499320984
F0.9729999899864197
tp3442
Rp3443
sg41
g20
(g14
S'\x00\x00\xc0A'
p3444
tp3445
Rp3446
ssS'Co+2'
p3447
(dp3448
g3
g4
(g5
(I0
tp3449
g7
tp3450
Rp3451
(I1
(I4
tp3452
g14
I00
S'q\xac3A\xf4l\xec@X\xa8\x97@\xfd\xf65?'
p3453
tp3454
bsg19
g20
(g14
S'\xc4\xb1n?'
p3455
tp3456
Rp3457
sg7
g4
(g5
(I0
tp3458
g7
tp3459
Rp3460
(I1
(I4
tp3461
g14
I00
S'o\xf0\x83@:\x92\x8b>\xa7\xe8#A<,\xcdA'
p3462
tp3463
bsg30
g20
(g14
S'\x00\x00\xd8A'
p3464
tp3465
Rp3466
sg34
g35
(F-2.4639999866485596
F3.6080000400543213
tp3467
Rp3468
sg38
g35
(F0.29899999499320984
F0.9729999899864197
tp3469
Rp3470
sg41
g20
(g14
S'\x00\x00\xc8A'
p3471
tp3472
Rp3473
ssS'Ir+4'
p3474
(dp3475
g3
g4
(g5
(I0
tp3476
g7
tp3477
Rp3478
(I1
(I4
tp3479
g14
I00
S'z\xa5\xf5A\xb7\xd1xA\xbb\xb8cA\xcf,\xb1@'
p3480
tp3481
bsg19
g20
(g14
S'\xd2\xfb\xde@'
p3482
tp3483
Rp3484
sg7
g4
(g5
(I0
tp3485
g7
tp3486
Rp3487
(I1
(I4
tp3488
g14
I00
S'\xd9\x94\xa7?\xd9\x08\xd7@\x1cD+>\xc6\xed\x8bA'
p3489
tp3490
bsg30
g20
(g14
S'\x00\x00\x9aB'
p3491
tp3492
Rp3493
sg34
g35
(F-5.390999794006348
F6.565999984741211
tp3494
Rp3495
sg38
g35
(F-2.065999984741211
F7.989999771118164
tp3496
Rp3497
sg41
g20
(g14
S'\x00\x00\x92B'
p3498
tp3499
Rp3500
ssS'B'
p3501
(dp3502
g3
g4
(g5
(I0
tp3503
g7
tp3504
Rp3505
(I1
(I4
tp3506
g14
I00
S'\xee|\x03@\xa3\x92\xaa?\xfd\x87\x8c?\xd8\xf04?'
p3507
tp3508
bsg19
g20
(g14
S'9\xd6E\xbe'
p3509
tp3510
Rp3511
sg7
g4
(g5
(I0
tp3512
g7
tp3513
Rp3514
(I1
(I4
tp3515
g14
I00
S'}\xbf\xb9A!\xb0\x82?2fqB\xce\xaa\x0f>'
p3516
tp3517
bsg30
g20
(g14
S'\x00\x00\xa0@'
p3518
tp3519
Rp3520
sg34
g35
(F0.00800000037997961
F0.004000000189989805
tp3521
Rp3522
sg38
g35
(F0.0
F0.0010000000474974513
tp3523
Rp3524
sg41
g20
(g14
S'\x00\x00\xa0@'
p3525
tp3526
Rp3527
ssS'F'
p3528
(dp3529
g3
g4
(g5
(I0
tp3530
g7
tp3531
Rp3532
(I1
(I4
tp3533
g14
I00
S'A\x82b@l\t)@\x0e-\xc2?C\x1c\x83?'
p3534
tp3535
bsg19
g20
(g14
S'\x96!\x8e>'
p3536
tp3537
Rp3538
sg7
g4
(g5
(I0
tp3539
g7
tp3540
Rp3541
(I1
(I4
tp3542
g14
I00
S'\x1e\x85$A\xbak\x89@T\xe3\x85>I.\xd1A'
p3543
tp3544
bsg30
g20
(g14
S'\x00\x00\x10A'
p3545
tp3546
Rp3547
sg34
g35
(F0.0689999982714653
F0.05299999937415123
tp3548
Rp3549
sg38
g35
(F0.014000000432133675
F0.009999999776482582
tp3550
Rp3551
sg41
g20
(g14
S'\x00\x00\x10A'
p3552
tp3553
Rp3554
ssS'Sr'
p3555
(dp3556
g3
g4
(g5
(I0
tp3557
g7
tp3558
Rp3559
(I1
(I4
tp3560
g14
I00
S'\xc8\x87\x8cA*\x18\x1dA\x06\x81\xad@s\xd7*@'
p3561
tp3562
bsg19
g20
(g14
S'\xdch @'
p3563
tp3564
Rp3565
sg7
g4
(g5
(I0
tp3566
g7
tp3567
Rp3568
(I1
(I4
tp3569
g14
I00
S'\x1d8\xc7?\xaf\x94aA\xc3d*>B`\x04C'
p3570
tp3571
bsg30
g20
(g14
S'\x00\x00\x18B'
p3572
tp3573
Rp3574
sg34
g35
(F-0.4650000035762787
F1.8200000524520874
tp3575
Rp3576
sg38
g35
(F-1.656999945640564
F3.2639999389648438
tp3577
Rp3578
sg41
g20
(g14
S'\x00\x00\x18B'
p3579
tp3580
Rp3581
ssS'Ce+4'
p3582
(dp3583
g3
g4
(g5
(I0
tp3584
g7
tp3585
Rp3586
(I1
(I4
tp3587
g14
I00
S'\x87\x96\xa2A~\x8c\x9eA\t\xf9AA\x91\r\x14>'
p3588
tp3589
bsg19
g20
(g14
S'\x1a\xc0\xcb?'
p3590
tp3591
Rp3592
sg7
g4
(g5
(I0
tp3593
g7
tp3594
Rp3595
(I1
(I4
tp3596
g14
I00
S"\xc63*@7\x1a`>\x86\xc9|A'\xf1xB"
p3597
tp3598
bsg30
g20
(g14
S'\x00\x00hB'
p3599
tp3600
Rp3601
sg34
g35
(F-2.1700000762939453
F9.64799976348877
tp3602
Rp3603
sg38
g35
(F-0.5640000104904175
F2.631999969482422
tp3604
Rp3605
sg41
g20
(g14
S'\x00\x00XB'
p3606
tp3607
Rp3608
ssS'N'
p3609
(dp3610
g3
g4
(g5
(I0
tp3611
g7
tp3612
Rp3613
(I1
(I4
tp3614
g14
I00
S'{\x83?@\x10\xe9\x7f@\x00\x00\x00\x00\x00\x00\x00\x00'
p3615
tp3616
bsg19
g20
(g14
S'\x00\x00\x00\x00'
p3617
tp3618
Rp3619
sg7
g4
(g5
(I0
tp3620
g7
tp3621
Rp3622
(I1
(I4
tp3623
g14
I00
S'G\x03\xcbA\x8e\x06`@\x00\x00\x00\x00\x00\x00\x00\x00'
p3624
tp3625
bsg30
g20
(g14
S'\x00\x00\xe0@'
p3626
tp3627
Rp3628
sg34
g35
(F0.0
F0.0
tp3629
Rp3630
sg38
g35
(F0.0
F0.0
tp3631
Rp3632
sg41
g20
(g14
S'\x00\x00\xe0@'
p3633
tp3634
Rp3635
ssS'Kr'
p3636
(dp3637
g3
g4
(g5
(I0
tp3638
g7
tp3639
Rp3640
(I1
(I4
tp3641
g14
I00
S'\x10\xd8\x8aA\xb1P\xd7@\xde\x93\xb1@ffb@'
p3642
tp3643
bsg19
g20
(g14
S'\xcd\xcc4@'
p3644
tp3645
Rp3646
sg7
g4
(g5
(I0
tp3647
g7
tp3648
Rp3649
(I1
(I4
tp3650
g14
I00
S'~\x1d\xf8?\x97\x7f\x84A\xc2\x86g>\xbc\x96\x1dB'
p3651
tp3652
bsg30
g20
(g14
S'\x00\x00\x10B'
p3653
tp3654
Rp3655
sg34
g35
(F-0.6650000214576721
F1.4390000104904175
tp3656
Rp3657
sg38
g35
(F-0.6520000100135803
F2.7130000591278076
tp3658
Rp3659
sg41
g20
(g14
S'\x00\x00\x10B'
p3660
tp3661
Rp3662
ssS'Si'
p3663
(dp3664
g3
g4
(g5
(I0
tp3665
g7
tp3666
Rp3667
(I1
(I4
tp3668
g14
I00
S'\xf8S\xc9@[BB@\xd4\x9a\xfe?}?\xc5?'
p3669
tp3670
bsg19
g20
(g14
S'u\x02\x92?'
p3671
tp3672
Rp3673
sg7
g4
(g5
(I0
tp3674
g7
tp3675
Rp3676
(I1
(I4
tp3677
g14
I00
S'\x06\x12\x1c@\xb5U\x01B-\xb2-?,c\xa3B'
p3678
tp3679
bsg30
g20
(g14
S'\x00\x00`A'
p3680
tp3681
Rp3682
sg34
g35
(F0.24400000274181366
F0.33000001311302185
tp3683
Rp3684
sg38
g35
(F0.07199999690055847
F0.07100000232458115
tp3685
Rp3686
sg41
g20
(g14
S'\x00\x00`A'
p3687
tp3688
Rp3689
ssS'Sn'
p3690
(dp3691
g3
g4
(g5
(I0
tp3692
g7
tp3693
Rp3694
(I1
(I4
tp3695
g14
I00
S'\xde\x82\x99A\xd3\xcd\x98A\x08\xac\x8e@\xdc\xd7\x1d@'
p3696
tp3697
bsg19
g20
(g14
S'\xf7\x06\x99@'
p3698
tp3699
Rp3700
sg7
g4
(g5
(I0
tp3701
g7
tp3702
Rp3703
(I1
(I4
tp3704
g14
I00
S'\xd1\x91\xba@)\xcb\x00?\x90 \xd7A\t\xea\xa7B'
p3705
tp3706
bsg30
g20
(g14
S'\x00\x00HB'
p3707
tp3708
Rp3709
sg34
g35
(F-0.1940000057220459
F5.459000110626221
tp3710
Rp3711
sg38
g35
(F-0.8730000257492065
F1.4240000247955322
tp3712
Rp3713
sg41
g20
(g14
S'\x00\x00HB'
p3714
tp3715
Rp3716
ssS'Sm'
p3717
(dp3718
g3
g4
(g5
(I0
tp3719
g7
tp3720
Rp3721
(I1
(I4
tp3722
g14
I00
S'\x9a\x08\xc0A\nh\x9bA\x9a\x08WA\xb8X9@'
p3723
tp3724
bsg19
g20
(g14
S'\x94j\r@'
p3725
tp3726
Rp3727
sg7
g4
(g5
(I0
tp3728
g7
tp3729
Rp3730
(I1
(I4
tp3731
g14
I00
S'_A\x1e@s*I>\xc3dfA\xcb\x01\x00C'
p3732
tp3733
bsg30
g20
(g14
S'\x00\x00xB'
p3734
tp3735
Rp3736
sg34
g35
(F-5.696000099182129
F12.319999694824219
tp3737
Rp3738
sg38
g35
(F-0.5329999923706055
F3.441999912261963
tp3739
Rp3740
sg41
g20
(g14
S'\x00\x00xB'
p3741
tp3742
Rp3743
ssS'V'
p3744
(dp3745
g3
g4
(g5
(I0
tp3746
g7
tp3747
Rp3748
(I1
(I4
tp3749
g14
I00
S'\xec\xc0$A6<\xeb@\xcc\x7f\x04@\x87\xa7\x03@'
p3750
tp3751
bsg19
g20
(g14
S'\xaf%\x9c?'
p3752
tp3753
Rp3754
sg7
g4
(g5
(I0
tp3755
g7
tp3756
Rp3757
(I1
(I4
tp3758
g14
I00
S'\xd0\xb3\xdb@\x12\x83\xe0>\x80&\xd7A\xbc\xf4\xccB'
p3759
tp3760
bsg30
g20
(g14
S'\x00\x00\xb8A'
p3761
tp3762
Rp3763
sg34
g35
(F0.03500000014901161
F2.109999895095825
tp3764
Rp3765
sg38
g35
(F0.2669999897480011
F0.5299999713897705
tp3766
Rp3767
sg41
g20
(g14
S'\x00\x00\xb8A'
p3768
tp3769
Rp3770
ssS'Sc'
p3771
(dp3772
g3
g4
(g5
(I0
tp3773
g7
tp3774
Rp3775
(I1
(I4
tp3776
g14
I00
S'%\x06\x13A\xd6\xc5\xeb@\x03\t\xd2?m\xe7\xbb?'
p3777
tp3778
bsg19
g20
(g14
S'x\x9c\xaa?'
p3779
tp3780
Rp3781
sg7
g4
(g5
(I0
tp3782
g7
tp3783
Rp3784
(I1
(I4
tp3785
g14
I00
S'>W\x10A\x93\xa9\x12?\xa6\x1b\x08C\x93iMB'
p3786
tp3787
bsg30
g20
(g14
S'\x00\x00\xa8A'
p3788
tp3789
Rp3790
sg34
g35
(F0.2849999964237213
F1.5329999923706055
tp3791
Rp3792
sg38
g35
(F0.22599999606609344
F0.3720000088214874
tp3793
Rp3794
sg41
g20
(g14
S'\x00\x00\xa8A'
p3795
tp3796
Rp3797
ssS'Sb'
p3798
(dp3799
g3
g4
(g5
(I0
tp3800
g7
tp3801
Rp3802
(I1
(I4
tp3803
g14
I00
S'h"\x9dA/]\x98A\xec/\xa1@[\xb1+@'
p3804
tp3805
bsg19
g20
(g14
S'\xa7\xe8\x92@'
p3806
tp3807
Rp3808
sg7
g4
(g5
(I0
tp3809
g7
tp3810
Rp3811
(I1
(I4
tp3812
g14
I00
S't\xb5\xa9@\xdf\xe0\xeb>[B\xdfA\xa4\x90\x96B'
p3813
tp3814
bsg30
g20
(g14
S'\x00\x00LB'
p3815
tp3816
Rp3817
sg34
g35
(F-0.28700000047683716
F5.894000053405762
tp3818
Rp3819
sg38
g35
(F-0.8159999847412109
F1.5460000038146973
tp3820
Rp3821
sg41
g20
(g14
S'\x00\x00LB'
p3822
tp3823
Rp3824
ssS'Fe+2'
p3825
(dp3826
g3
g4
(g5
(I0
tp3827
g7
tp3828
Rp3829
(I1
(I4
tp3830
g14
I00
S'\xac\xad0A\xcf\xf7\xeb@\xa5N\x84@\x93:\xe1>'
p3831
tp3832
bsg19
g20
(g14
S'\xd9=\x81?'
p3833
tp3834
Rp3835
sg7
g4
(g5
(I0
tp3836
g7
tp3837
Rp3838
(I1
(I4
tp3839
g14
I00
S'\xee\xeb\x94@HP\x9c>\xa4\xdf@AH?\xfaA'
p3840
tp3841
bsg30
g20
(g14
S'\x00\x00\xd0A'
p3842
tp3843
Rp3844
sg34
g35
(F-1.1790000200271606
F3.2039999961853027
tp3845
Rp3846
sg38
g35
(F0.3009999990463257
F0.8450000286102295
tp3847
Rp3848
sg41
g20
(g14
S'\x00\x00\xc0A'
p3849
tp3850
Rp3851
ssS'Fe+3'
p3852
(dp3853
g3
g4
(g5
(I0
tp3854
g7
tp3855
Rp3856
(I1
(I4
tp3857
g14
I00
S'\x89\xd22A\x92\\\xec@gDY@tF\x94='
p3858
tp3859
bsg19
g20
(g14
S'\xcc\x7fx?'
p3860
tp3861
Rp3862
sg7
g4
(g5
(I0
tp3863
g7
tp3864
Rp3865
(I1
(I4
tp3866
g14
I00
S'\x9f\xab\x93@#\xdb\x99>3\xc4:A\xf59\x1aB'
p3867
tp3868
bsg30
g20
(g14
S'\x00\x00\xd0A'
p3869
tp3870
Rp3871
sg34
g35
(F-1.1790000200271606
F3.2039999961853027
tp3872
Rp3873
sg38
g35
(F0.3009999990463257
F0.8450000286102295
tp3874
Rp3875
sg41
g20
(g14
S'\x00\x00\xb8A'
p3876
tp3877
Rp3878
ssS'Se'
p3879
(dp3880
g3
g4
(g5
(I0
tp3881
g7
tp3882
Rp3883
(I1
(I4
tp3884
g14
I00
S':\x01\x88A*:\xba@EG~@mV\x8b@'
p3885
tp3886
bsg19
g20
(g14
S'N\xd15@'
p3887
tp3888
Rp3889
sg7
g4
(g5
(I0
tp3890
g7
tp3891
Rp3892
(I1
(I4
tp3893
g14
I00
S'*:\x1a@:\x92\x8b>\x92\xcbsA\xe4C/B'
p3894
tp3895
bsg30
g20
(g14
S'\x00\x00\x08B'
p3896
tp3897
Rp3898
sg34
g35
(F-0.8790000081062317
F1.1390000581741333
tp3899
Rp3900
sg38
g35
(F-0.17800000309944153
F2.2230000495910645
tp3901
Rp3902
sg41
g20
(g14
S'\x00\x00\x08B'
p3903
tp3904
Rp3905
ssS'Sb+5'
p3906
(dp3907
g3
g4
(g5
(I0
tp3908
g7
tp3909
Rp3910
(I1
(I4
tp3911
g14
I00
S'\xb0\xf2\x9eA\xd9=\x98A\xe4f\x1a@\x00\x00\x00\x00'
p3912
tp3913
bsg19
g20
(g14
S'\x06*\x96@'
p3914
tp3915
Rp3916
sg7
g4
(g5
(I0
tp3917
g7
tp3918
Rp3919
(I1
(I4
tp3920
g14
I00
S'\\Z\xae@(\x9a\xef>\xb0\x03bA\x00\x00\x00\x00'
p3921
tp3922
bsg30
g20
(g14
S'\x00\x00LB'
p3923
tp3924
Rp3925
sg34
g35
(F-0.28700000047683716
F5.894000053405762
tp3926
Rp3927
sg38
g35
(F-0.8159999847412109
F1.5460000038146973
tp3928
Rp3929
sg41
g20
(g14
S'\x00\x008B'
p3930
tp3931
Rp3932
ssS'Ag+1'
p3933
(dp3934
g3
g4
(g5
(I0
tp3935
g7
tp3936
Rp3937
(I1
(I4
tp3938
g14
I00
S'\x19s\x99A\xe7\x8c\x7fA\xc1\xca\xa8@\xb2\x0e\xb7>'
p3939
tp3940
bsg19
g20
(g14
S'.\xe7\xa6@'
p3941
tp3942
Rp3943
sg7
g4
(g5
(I0
tp3944
g7
tp3945
Rp3946
(I1
(I4
tp3947
g14
I00
S'\xfdk%?\x8e\x1e\xe6@]\xdc\xadA\xba:\x84B'
p3948
tp3949
bsg30
g20
(g14
S'\x00\x00<B'
p3950
tp3951
Rp3952
sg34
g35
(F-0.05999999865889549
F4.2820000648498535
tp3953
Rp3954
sg38
g35
(F-1.0850000381469727
F1.1009999513626099
tp3955
Rp3956
sg41
g20
(g14
S'\x00\x008B'
p3957
tp3958
Rp3959
ssS'Pb'
p3960
(dp3961
g3
g4
(g5
(I0
tp3962
g7
tp3963
Rp3964
(I1
(I4
tp3965
g14
I00
S'\\~\xf8A\xea\x04QA7\x89\x93A\xf7\x06\xbf@'
p3966
tp3967
bsg19
g20
(g14
S'\xbc\x96VA'
p3968
tp3969
Rp3970
sg7
g4
(g5
(I0
tp3971
g7
tp3972
Rp3973
(I1
(I4
tp3974
g14
I00
S'\xf2\xb00?\xeb\xe2\x16@T\xe3\tA\x17\x08=B'
p3975
tp3976
bsg30
g20
(g14
S'\x00\x00\xa4B'
p3977
tp3978
Rp3979
sg34
g35
(F-4.817999839782715
F8.505000114440918
tp3980
Rp3981
sg38
g35
(F-4.132999897003174
F10.10200023651123
tp3982
Rp3983
sg41
g20
(g14
S'\x00\x00\xa4B'
p3984
tp3985
Rp3986
ssS'Ag+2'
p3987
(dp3988
g3
g4
(g5
(I0
tp3989
g7
tp3990
Rp3991
(I1
(I4
tp3992
g14
I00
S'|P\x99A\xfd\xf6\x81Aj\xde\x8b@\x00\x00\x00\x00'
p3993
tp3994
bsg19
g20
(g14
S'j\xd9\xa6@'
p3995
tp3996
Rp3997
sg7
g4
(g5
(I0
tp3998
g7
tp3999
Rp4000
(I1
(I4
tp4001
g14
I00
S'\xdcH%? \xef\xe5@\xf2A\xabA\x00\x00\x00\x00'
p4002
tp4003
bsg30
g20
(g14
S'\x00\x00<B'
p4004
tp4005
Rp4006
sg34
g35
(F-0.05999999865889549
F4.2820000648498535
tp4007
Rp4008
sg38
g35
(F-1.0850000381469727
F1.1009999513626099
tp4009
Rp4010
sg41
g20
(g14
S'\x00\x004B'
p4011
tp4012
Rp4013
ssS'Co'
p4014
(dp4015
g3
g4
(g5
(I0
tp4016
g7
tp4017
Rp4018
(I1
(I4
tp4019
g14
I00
S'\xac\x8bDA\xa7\xe8\xea@\xda\x1b\x80@\xbdR\x16@'
p4020
tp4021
bsg19
g20
(g14
S'\xaa\x82\x81?'
p4022
tp4023
Rp4024
sg7
g4
(g5
(I0
tp4025
g7
tp4026
Rp4027
(I1
(I4
tp4028
g14
I00
S'c\xee\x88@r\x8a\x8e>\x0c\x93XA\xa1V\x8eB'
p4029
tp4030
bsg30
g20
(g14
S'\x00\x00\xd8A'
p4031
tp4032
Rp4033
sg34
g35
(F-2.4639999866485596
F3.6080000400543213
tp4034
Rp4035
sg38
g35
(F0.29899999499320984
F0.9729999899864197
tp4036
Rp4037
sg41
g20
(g14
S'\x00\x00\xd8A'
p4038
tp4039
Rp4040
ssS'Br-1'
p4041
(dp4042
g3
g4
(g5
(I0
tp4043
g7
tp4044
Rp4045
(I1
(I4
tp4046
g14
I00
S'\xd8_\x89A}\xae\xca@\xadi\xb2@r\x8an@'
p4047
tp4048
bsg19
g20
(g14
S'\xcc]K@'
p4049
tp4050
Rp4051
sg7
g4
(g5
(I0
tp4052
g7
tp4053
Rp4054
(I1
(I4
tp4055
g14
I00
S'w-\r@\x0e\xad\x9aA\xc5\xfe\x92>/\x9dhB'
p4056
tp4057
bsg30
g20
(g14
S'\x00\x00\x0cB'
p4058
tp4059
Rp4060
sg34
g35
(F-0.7670000195503235
F1.2829999923706055
tp4061
Rp4062
sg38
g35
(F-0.37400001287460327
F2.4560000896453857
tp4063
Rp4064
sg41
g20
(g14
S'\x00\x00\x10B'
p4065
tp4066
Rp4067
ssS'Cl'
p4068
(dp4069
g3
g4
(g5
(I0
tp4070
g7
tp4071
Rp4072
(I1
(I4
tp4073
g14
I00
S'\xcc]7A\xe9H\xe6@\xe0-\xc8@\xbe\x9f\xd2?'
p4074
tp4075
bsg19
g20
(g14
S'\x1c\xeb\x18\xc1'
p4076
tp4077
Rp4078
sg7
g4
(g5
(I0
tp4079
g7
tp4080
Rp4081
(I1
(I4
tp4082
g14
I00
S"\xc3d*<\x0bF\x95?\xbb'\x94A\x15\x1d?B"
p4083
tp4084
bsg30
g20
(g14
S'\x00\x00\x88A'
p4085
tp4086
Rp4087
sg34
g35
(F0.3479999899864197
F0.7020000219345093
tp4088
Rp4089
sg38
g35
(F0.13199999928474426
F0.1589999943971634
tp4090
Rp4091
sg41
g20
(g14
S'\x00\x00\x88A'
p4092
tp4093
Rp4094
ssS'Ca'
p4095
(dp4096
g3
g4
(g5
(I0
tp4097
g7
tp4098
Rp4099
(I1
(I4
tp4100
g14
I00
S'\x8e\x06\nA\xc3d\xec@\xd8\x81\xcb?h\xb3\x82?'
p4101
tp4102
bsg19
g20
(g14
S'G\x03\xb0?'
p4103
tp4104
Rp4105
sg7
g4
(g5
(I0
tp4106
g7
tp4107
Rp4108
(I1
(I4
tp4109
g14
I00
S"\xd7\x12'A5\xef(?.\x7f\xabB\xdfo2C"
p4110
tp4111
bsg30
g20
(g14
S'\x00\x00\xa0A'
p4112
tp4113
Rp4114
sg34
g35
(F0.3409999907016754
F1.2860000133514404
tp4115
Rp4116
sg38
g35
(F0.2029999941587448
F0.3059999942779541
tp4117
Rp4118
sg41
g20
(g14
S'\x00\x00\xa0A'
p4119
tp4120
Rp4121
ssS'Ano'
p4122
(dp4123
g3
g4
(g5
(I0
tp4124
g7
tp4125
Rp4126
(I1
(I4
tp4127
g14
I00
S'\x00\x00\x80?\x00\x00\x00\x00\x00\x00\x00\x00\x00\x00\x00\x00'
p4128
tp4129
bsg19
g20
(g14
S'\x00\x00\x00\x00'
p4130
tp4131
Rp4132
sg7
g4
(g5
(I0
tp4133
g7
tp4134
Rp4135
(I1
(I4
tp4136
g14
I00
S'\x00\x00\x00\x00\x00\x00\x00\x00\x00\x00\x00\x00\x00\x00\x00\x00'
p4137
tp4138
bsg30
g20
(g14
S'\x00\x00\x80?'
p4139
tp4140
Rp4141
sg34
g35
(F0.0
F1.0
tp4142
Rp4143
sg38
g35
(F0.0
F1.0
tp4144
Rp4145
sg41
g20
(g14
S'\x00\x00\x80?'
p4146
tp4147
Rp4148
ssS'Zr+4'
p4149
(dp4150
g3
g4
(g5
(I0
tp4151
g7
tp4152
Rp4153
(I1
(I4
tp4154
g14
I00
S'\x9bU\x91A2\xe6 AYn\x81?2w)\xc0'
p4155
tp4156
bsg19
g20
(g14
S'\xf4\xa1\x16A'
p4157
tp4158
Rp4159
sg7
g4
(g5
(I0
tp4160
g7
tp4161
Rp4162
(I1
(I4
tp4163
g14
I00
S'\x91~\x9b?p_"A\xdc\xd7\xacA\xd6s\xd2\xbd'
p4164
tp4165
bsg30
g20
(g14
S'\x00\x00 B'
p4166
tp4167
Rp4168
sg34
g35
(F-0.3140000104904175
F2.244999885559082
tp4169
Rp4170
sg38
g35
(F-2.9649999141693115
F0.5600000023841858
tp4171
Rp4172
sg41
g20
(g14
S'\x00\x00\x10B'
p4173
tp4174
Rp4175
ssS'Ce'
p4176
(dp4177
g3
g4
(g5
(I0
tp4178
g7
tp4179
Rp4180
(I1
(I4
tp4181
g14
I00
S"8V\xa9A\xf0'\x9eA\xec\x9e=A\xc0&U@"
p4182
tp4183
bsg19
g20
(g14
S'\xfdj\xee?'
p4184
tp4185
Rp4186
sg7
g4
(g5
(I0
tp4187
g7
tp4188
Rp4189
(I1
(I4
tp4190
g14
I00
S'\xec\xfa3@\xb2Gh>\xcc\xdd\x8cA\xdb9\xfeB'
p4191
tp4192
bsg30
g20
(g14
S'\x00\x00hB'
p4193
tp4194
Rp4195
sg34
g35
(F-2.1700000762939453
F9.64799976348877
tp4196
Rp4197
sg38
g35
(F-0.5640000104904175
F2.631999969482422
tp4198
Rp4199
sg41
g20
(g14
S'\x00\x00hB'
p4200
tp4201
Rp4202
ssS'Cd'
p4203
(dp4204
g3
g4
(g5
(I0
tp4205
g7
tp4206
Rp4207
(I1
(I4
tp4208
g14
I00
S"m\xc5\x99A\xbb'\x8dA\x83\xc0\x8e@\xd4+\xcd?"
p4209
tp4210
bsg19
g20
(g14
S'\x868\xa2@'
p4211
tp4212
Rp4213
sg7
g4
(g5
(I0
tp4214
g7
tp4215
Rp4216
(I1
(I4
tp4217
g14
I00
S'\xb57\x18?\xb5\x15\xdd@=\x9b\xc5A\n\xf7\xaeB'
p4218
tp4219
bsg30
g20
(g14
S'\x00\x00@B'
p4220
tp4221
Rp4222
sg34
g35
(F-0.07900000363588333
F4.6529998779296875
tp4223
Rp4224
sg38
g35
(F-1.0049999952316284
F1.2020000219345093
tp4225
Rp4226
sg41
g20
(g14
S'\x00\x00@B'
p4227
tp4228
Rp4229
ssS'Lu'
p4230
(dp4231
g3
g4
(g5
(I0
tp4232
g7
tp4233
Rp4234
(I1
(I4
tp4235
g14
I00
S'\xaf\x94\xe7Af\x88sA\x9a\x99qA\x1c\xd3m@'
p4236
tp4237
bsg19
g20
(g14
S'\xb0=\xff@'
p4238
tp4239
Rp4240
sg7
g4
(g5
(I0
tp4241
g7
tp4242
Rp4243
(I1
(I4
tp4244
g14
I00
S'\xd6n\xf3?V\xc3\x1fA\x1e\xa6\x85>\xdc\xa8\xa8B'
p4245
tp4246
bsg30
g20
(g14
S'\x00\x00\x8eB'
p4247
tp4248
Rp4249
sg34
g35
(F-7.132999897003174
F4.692999839782715
tp4250
Rp4251
sg38
g35
(F-0.9879999756813049
F5.857999801635742
tp4252
Rp4253
sg41
g20
(g14
S'\x00\x00\x8eB'
p4254
tp4255
Rp4256
ssS'Cs'
p4257
(dp4258
g3
g4
(g5
(I0
tp4259
g7
tp4260
Rp4261
(I1
(I4
tp4262
g14
I00
S'\x15\x1d\xa3A\x7f\xd9\x98A\x8d\x97*A\xfee\xbf?'
p4263
tp4264
bsg19
g20
(g14
S'\xebsU@'
p4265
tp4266
Rp4267
sg7
g4
(g5
(I0
tp4268
g7
tp4269
Rp4270
(I1
(I4
tp4271
g14
I00
S'\x7fjd@\x12\x14\x9f>k\x1a\xc3Al\xe7UC'
p4272
tp4273
bsg30
g20
(g14
S'\x00\x00\\B'
p4274
tp4275
Rp4276
sg34
g35
(F-1.0219999551773071
F7.9039998054504395
tp4277
Rp4278
sg38
g35
(F-0.6439999938011169
F2.11899995803833
tp4279
Rp4280
sg41
g20
(g14
S'\x00\x00\\B'
p4281
tp4282
Rp4283
ssS'Cr'
p4284
(dp4285
g3
g4
(g5
(I0
tp4286
g7
tp4287
Rp4288
(I1
(I4
tp4289
g14
I00
S'\xe6?*A\x83Q\xeb@j\xbcT@i\x00\xbf?'
p4290
tp4291
bsg19
g20
(g14
S'\x19s\x97?'
p4292
tp4293
Rp4294
sg7
g4
(g5
(I0
tp4295
g7
tp4296
Rp4297
(I1
(I4
tp4298
g14
I00
S'TR\xc3@9\xb4\xc8>\xce\x19\xa2A\xd4z\xc5B'
p4299
tp4300
bsg30
g20
(g14
S'\x00\x00\xc0A'
p4301
tp4302
Rp4303
sg34
g35
(F-0.1979999989271164
F2.443000078201294
tp4304
Rp4305
sg38
g35
(F0.2840000092983246
F0.6240000128746033
tp4306
Rp4307
sg41
g20
(g14
S'\x00\x00\xc0A'
p4308
tp4309
Rp4310
ssS'Sn+4'
p4311
(dp4312
g3
g4
(g5
(I0
tp4313
g7
tp4314
Rp4315
(I1
(I4
tp4316
g14
I00
S'fw\x97An\xb4\x9dA\xca\xc3Z@\t\x1b\x9e<'
p4317
tp4318
bsg19
g20
(g14
S'\xca\xc3z@'
p4319
tp4320
Rp4321
sg7
g4
(g5
(I0
tp4322
g7
tp4323
Rp4324
(I1
(I4
tp4325
g14
I00
S'\xb0r\xb8@\x04V\xee>\x12\x14`A\xf3\x1fB\xbf'
p4326
tp4327
bsg30
g20
(g14
S'\x00\x00HB'
p4328
tp4329
Rp4330
sg34
g35
(F-0.1940000057220459
F5.459000110626221
tp4331
Rp4332
sg38
g35
(F-0.8730000257492065
F1.4240000247955322
tp4333
Rp4334
sg41
g20
(g14
S'\x00\x008B'
p4335
tp4336
Rp4337
ssS'Sn+2'
p4338
(dp4339
g3
g4
(g5
(I0
tp4340
g7
tp4341
Rp4342
(I1
(I4
tp4343
g14
I00
S'\r\xe0\x98A;p\x98A\xd7\x12\x92@\x10X\xf9>'
p4344
tp4345
bsg19
g20
(g14
S"\xbb'\x99@"
p4346
tp4347
Rp4348
sg7
g4
(g5
(I0
tp4349
g7
tp4350
Rp4351
(I1
(I4
tp4352
g14
I00
S'\xee\xeb\x00?B\xcf\xba@i\x00\xbbA\x0c\xd3xB'
p4353
tp4354
bsg30
g20
(g14
S'\x00\x00HB'
p4355
tp4356
Rp4357
sg34
g35
(F-0.1940000057220459
F5.459000110626221
tp4358
Rp4359
sg38
g35
(F-0.8730000257492065
F1.4240000247955322
tp4360
Rp4361
sg41
g20
(g14
S'\x00\x00@B'
p4362
tp4363
Rp4364
ssS'Cv'
p4365
(dp4366
g3
g4
(g5
(I0
tp4367
g7
tp4368
Rp4369
(I1
(I4
tp4370
g14
I00
S'%\xaf\x10@&\xe4\xc7?\xfa~\x86?\xae\xd9V?'
p4371
tp4372
bsg19
g20
(g14
S'\xa6\xee\x92>'
p4373
tp4374
Rp4375
sg7
g4
(g5
(I0
tp4376
g7
tp4377
Rp4378
(I1
(I4
tp4379
g14
I00
S'\x8e\x86\xb5A3\x1b(?P\x19\x1cA-a^B'
p4380
tp4381
bsg30
g20
(g14
S'\x00\x00\xc0@'
p4382
tp4383
Rp4384
sg34
g35
(F0.017000000923871994
F0.008999999612569809
tp4385
Rp4386
sg38
g35
(F0.0020000000949949026
F0.0020000000949949026
tp4387
Rp4388
sg41
g20
(g14
S'\x00\x00\xc0@'
p4389
tp4390
Rp4391
ssS'Cu'
p4392
(dp4393
g3
g4
(g5
(I0
tp4394
g7
tp4395
Rp4396
(I1
(I4
tp4397
g14
I00
S'rhUA\xfb\\\xe5@\xa2\xb4\xb3@?5\xd6?'
p4398
tp4399
bsg19
g20
(g14
S'\xb0r\x98?'
p4400
tp4401
Rp4402
sg7
g4
(g5
(I0
tp4403
g7
tp4404
Rp4405
(I1
(I4
tp4406
g14
I00
S'\x98Le@\x91\xed|>yX6A\r\xa0\x81B'
p4407
tp4408
bsg30
g20
(g14
S'\x00\x00\xe8A'
p4409
tp4410
Rp4411
sg34
g35
(F-2.0190000534057617
F0.5889999866485596
tp4412
Rp4413
sg38
g35
(F0.2630000114440918
F1.2660000324249268
tp4414
Rp4415
sg41
g20
(g14
S'\x00\x00\xe8A'
p4416
tp4417
Rp4418
ssS'Na+1'
p4419
(dp4420
g3
g4
(g5
(I0
tp4421
g7
tp4422
Rp4423
(I1
(I4
tp4424
g14
I00
S'\x7fjP@\xb3\xea{@\xa5,\xb3?\xdch\x80?'
p4425
tp4426
bsg19
g20
(g14
S'\x17\xd9\xce>'
p4427
tp4428
Rp4429
sg7
g4
(g5
(I0
tp4430
g7
tp4431
Rp4432
(I1
(I4
tp4433
g14
I00
S'\xc4\xb1*@\x8a\xb0\xc3@\x04\xe7L>\xbe\x9f`A'
p4434
tp4435
bsg30
g20
(g14
S'\x00\x000A'
p4436
tp4437
Rp4438
sg34
g35
(F0.1289999932050705
F0.12399999797344208
tp4439
Rp4440
sg38
g35
(F0.029999999329447746
F0.02500000037252903
tp4441
Rp4442
sg41
g20
(g14
S'\x00\x00 A'
p4443
tp4444
Rp4445
ssS'Siv'
p4446
(dp4447
g3
g4
(g5
(I0
tp4448
g7
tp4449
Rp4450
(I1
(I4
tp4451
g14
I00
S"\xc24\xb5@\xc0\x95D@'\xf7'@aT\xb2?"
p4452
tp4453
bsg19
g20
(g14
S'\xfd\x9f\x9f?'
p4454
tp4455
Rp4456
sg7
g4
(g5
(I0
tp4457
g7
tp4458
Rp4459
(I1
(I4
tp4460
g14
I00
S'\xa3\x92*@R\xa7\x1aB\xf9\xbcj?s\x17\xbbB'
p4461
tp4462
bsg30
g20
(g14
S'\x00\x00`A'
p4463
tp4464
Rp4465
sg34
g35
(F0.24400000274181366
F0.33000001311302185
tp4466
Rp4467
sg38
g35
(F0.07199999690055847
F0.07100000232458115
tp4468
Rp4469
sg41
g20
(g14
S'\x00\x00`A'
p4470
tp4471
Rp4472
ssS'La'
p4473
(dp4474
g3
g4
(g5
(I0
tp4475
g7
tp4476
Rp4477
(I1
(I4
tp4478
g14
I00
S'\xbe\x9f\xa4A\xc0\xca\x9cA\x94\xf65ARaR@'
p4479
tp4480
bsg19
g20
(g14
S'\xd8d\t@'
p4481
tp4482
Rp4483
sg7
g4
(g5
(I0
tp4484
g7
tp4485
Rp4486
(I1
(I4
tp4487
g14
I00
S'\xd1\xae<@\xa8Wz>I.\x96A\xbe\x1f\x05C'
p4488
tp4489
bsg30
g20
(g14
S'\x00\x00dB'
p4490
tp4491
Rp4492
sg34
g35
(F-1.715999960899353
F9.035999298095703
tp4493
Rp4494
sg38
g35
(F-0.5879999995231628
F2.4519999027252197
tp4495
Rp4496
sg41
g20
(g14
S'\x00\x00dB'
p4497
tp4498
Rp4499
ssS'Am'
p4500
(dp4501
g3
g4
(g5
(I0
tp4502
g7
tp4503
Rp4504
(I1
(I4
tp4505
g14
I00
S'\xb2\xae\x12B)\xcb\xc0Ad\xbb\x8aAd\x92_@'
p4506
tp4507
bsg19
g20
(g14
S'H\xbfUA'
p4508
tp4509
Rp4510
sg7
g4
(g5
(I0
tp4511
g7
tp4512
Rp4513
(I1
(I4
tp4514
g14
I00
S'8\x9e\xf7>\xce6M@\x81\x04eA\xc6\x8b\xccB'
p4515
tp4516
bsg30
g20
(g14
S'\x00\x00\xbeB'
p4517
tp4518
Rp4519
sg34
g35
(F-5.929999828338623
F15.086999893188477
tp4520
Rp4521
sg38
g35
(F-8.925999641418457
F4.511000156402588
tp4522
Rp4523
sg41
g20
(g14
S'\x00\x00\xbeB'
p4524
tp4525
Rp4526
ssS'Li'
p4527
(dp4528
g3
g4
(g5
(I0
tp4529
g7
tp4530
Rp4531
(I1
(I4
tp4532
g14
I00
S'\xdch\x90?n4@?{\x14\x1e?\xcd;\xee>'
p4533
tp4534
bsg19
g20
(g14
S'Qk\x1a='
p4535
tp4536
Rp4537
sg7
g4
(g5
(I0
tp4538
g7
tp4539
Rp4540
(I1
(I4
tp4541
g14
I00
S'+\x18}@\x0b\xb5\x86?\xf0\xc7\xaaB\xd1B(C'
p4542
tp4543
bsg30
g20
(g14
S'\x00\x00@@'
p4544
tp4545
Rp4546
sg34
g35
(F0.0010000000474974513
F0.0
tp4547
Rp4548
sg38
g35
(F0.0
F0.0
tp4549
Rp4550
sg41
g20
(g14
S'\x00\x00@@'
p4551
tp4552
Rp4553
ssS'Y+3'
p4554
(dp4555
g3
g4
(g5
(I0
tp4556
g7
tp4557
Rp4558
(I1
(I4
tp4559
g14
I00
S'\x16j\x8fA\x19s\x12A0L\xe2?\x98n\x04\xc2'
p4560
tp4561
bsg19
g20
(g14
S'r\n!B'
p4562
tp4563
Rp4564
sg7
g4
(g5
(I0
tp4565
g7
tp4566
Rp4567
(I1
(I4
tp4568
g14
I00
S'qU\xad?\x98n3AzG\xb5A\xdf\x1aX\xbc'
p4569
tp4570
bsg30
g20
(g14
S'\x00\x00\x1cB'
p4571
tp4572
Rp4573
sg34
g35
(F-0.38600000739097595
F2.0250000953674316
tp4574
Rp4575
sg38
g35
(F-2.9509999752044678
F3.5420000553131104
tp4576
Rp4577
sg41
g20
(g14
S'\x00\x00\x10B'
p4578
tp4579
Rp4580
ssS'Tl'
p4581
(dp4582
g3
g4
(g5
(I0
tp4583
g7
tp4584
Rp4585
(I1
(I4
tp4586
g14
I00
S'W[\xdcAgD\x99A\xa6\x9bxAk\xd4\xb0@'
p4587
tp4588
bsg19
g20
(g14
S')\xcbRA'
p4589
tp4590
Rp4591
sg7
g4
(g5
(I0
tp4592
g7
tp4593
Rp4594
(I1
(I4
tp4595
g14
I00
S"\xe9\xb7'?\xf6Q\x0bA\xfcR\xfb?uB7B"
p4596
tp4597
bsg30
g20
(g14
S'\x00\x00\xa2B'
p4598
tp4599
Rp4600
sg34
g35
(F-4.882999897003174
F8.08899974822998
tp4601
Rp4602
sg38
g35
(F-3.555999994277954
F9.659000396728516
tp4603
Rp4604
sg41
g20
(g14
S'\x00\x00\xa2B'
p4605
tp4606
Rp4607
ssS'Tm'
p4608
(dp4609
g3
g4
(g5
(I0
tp4610
g7
tp4611
Rp4612
(I1
(I4
tp4613
g14
I00
S'\x88t\xe1A^)~A\x9awrA\xfe+?@'
p4614
tp4615
bsg19
g20
(g14
S'\xdf2\xd8@'
p4616
tp4617
Rp4618
sg7
g4
(g5
(I0
tp4619
g7
tp4620
Rp4621
(I1
(I4
tp4622
g14
I00
S'k\xd4\x01@\xd5\x94t>\xc2\xf5/A\x08\xec\xcdB'
p4623
tp4624
bsg30
g20
(g14
S'\x00\x00\x8aB'
p4625
tp4626
Rp4627
sg34
g35
(F-8.48799991607666
F4.181000232696533
tp4628
Rp4629
sg38
g35
(F-0.7950000166893005
F5.248000144958496
tp4630
Rp4631
sg41
g20
(g14
S'\x00\x00\x8aB'
p4632
tp4633
Rp4634
ssS'Th'
p4635
(dp4636
g3
g4
(g5
(I0
tp4637
g7
tp4638
Rp4639
(I1
(I4
tp4640
g14
I00
S'\x0cB\x0eB\r`\xbbA\xf1\xf4KA1\xd3\x99@'
p4641
tp4642
bsg19
g20
(g14
S'\x04\xe7VA'
p4643
tp4644
Rp4645
sg7
g4
(g5
(I0
tp4646
g7
tp4647
Rp4648
(I1
(I4
tp4649
g14
I00
S'L8\x10?\x10\x92]@\xaf\xa5\x8eA*X\xc6B'
p4650
tp4651
bsg30
g20
(g14
S'\x00\x00\xb4B'
p4652
tp4653
Rp4654
sg34
g35
(F-5.091000080108643
F12.329999923706055
tp4655
Rp4656
sg38
g35
(F-8.126999855041504
F8.869999885559082
tp4657
Rp4658
sg41
g20
(g14
S'\x00\x00\xb4B'
p4659
tp4660
Rp4661
ssS'Ti'
p4662
(dp4663
g3
g4
(g5
(I0
tp4664
g7
tp4665
Rp4666
(I1
(I4
tp4667
g14
I00
S'\xe9&\x1cA\xb7b\xeb@\x1c|\xd9?\x03x\xf3?'
p4668
tp4669
bsg19
g20
(g14
S'\xfa\xed\xa3?'
p4670
tp4671
Rp4672
sg7
g4
(g5
(I0
tp4673
g7
tp4674
Rp4675
(I1
(I4
tp4676
g14
I00
S'\xc19\xfb@\x00\x00\x00?\x03\x89\x0eB\xc25\xe8B'
p4677
tp4678
bsg30
g20
(g14
S'\x00\x00\xb0A'
p4679
tp4680
Rp4681
sg34
g35
(F0.1889999955892563
F1.8070000410079956
tp4682
Rp4683
sg38
g35
(F0.24799999594688416
F0.44600000977516174
tp4684
Rp4685
sg41
g20
(g14
S'\x00\x00\xb0A'
p4686
tp4687
Rp4688
ssS'Te'
p4689
(dp4690
g3
g4
(g5
(I0
tp4691
g7
tp4692
Rp4693
(I1
(I4
tp4694
g14
I00
S'\x17\xb7\x9fAC\x1c\x98A\xc6\xa2\xc4@\x94\x87!@'
p4695
tp4696
bsg19
g20
(g14
S'\x96C\x8b@'
p4697
tp4698
Rp4699
sg7
g4
(g5
(I0
tp4700
g7
tp4701
Rp4702
(I1
(I4
tp4703
g14
I00
S'N(\x9a@=~\xd7>*:\xe4A<\xae\x8dB'
p4704
tp4705
bsg30
g20
(g14
S'\x00\x00PB'
p4706
tp4707
Rp4708
sg34
g35
(F-0.4180000126361847
F6.3520002365112305
tp4709
Rp4710
sg38
g35
(F-0.7720000147819519
F1.6749999523162842
tp4711
Rp4712
sg41
g20
(g14
S'\x00\x00PB'
p4713
tp4714
Rp4715
ssS'Tb'
p4716
(dp4717
g3
g4
(g5
(I0
tp4718
g7
tp4719
Rp4720
(I1
(I4
tp4721
g14
I00
S'I.\xcfA}\xbf\x91A4\x11eA\xcd\x06=@'
p4722
tp4723
bsg19
g20
(g14
S'lCe@'
p4724
tp4725
Rp4726
sg7
g4
(g5
(I0
tp4727
g7
tp4728
Rp4729
(I1
(I4
tp4730
g14
I00
S'\x1a\x86\x0f@\xb6\xd9H>\x05\xa3JAX\xb9\xe6B'
p4731
tp4732
bsg30
g20
(g14
S'\x00\x00\x82B'
p4733
tp4734
Rp4735
sg34
g35
(F-9.498000144958496
F9.241999626159668
tp4736
Rp4737
sg38
g35
(F-0.5910000205039978
F4.151000022888184
tp4738
Rp4739
sg41
g20
(g14
S'\x00\x00\x82B'
p4740
tp4741
Rp4742
ssS'Tc'
p4743
(dp4744
g3
g4
(g5
(I0
tp4745
g7
tp4746
Rp4747
(I1
(I4
tp4748
g14
I00
S'r\n\x99AM\x841A\xb1\xc4\x94@\xbb\x9b-@'
p4749
tp4750
bsg19
g20
(g14
S'\xdd\xef\xac@'
p4751
tp4752
Rp4753
sg7
g4
(g5
(I0
tp4754
g7
tp4755
Rp4756
(I1
(I4
tp4757
g14
I00
S'\xc17]?cQ\x02A\xcb\x90\xacA\xc4\xb1\xadB'
p4758
tp4759
bsg30
g20
(g14
S'\x00\x00,B'
p4760
tp4761
Rp4762
sg34
g35
(F-0.14499999582767487
F3.005000114440918
tp4763
Rp4764
sg38
g35
(F-0.5899999737739563
F0.7590000033378601
tp4765
Rp4766
sg41
g20
(g14
S'\x00\x00,B'
p4767
tp4768
Rp4769
ssS'Pu+6'
p4770
(dp4771
g3
g4
(g5
(I0
tp4772
g7
tp4773
Rp4774
(I1
(I4
tp4775
g14
I00
S'\xc4\xb1\x0cB\xab\xbe\xb5AL7lA\x9bZ\x12@'
p4776
tp4777
bsg19
g20
(g14
S'c\xeePA'
p4778
tp4779
Rp4780
sg7
g4
(g5
(I0
tp4781
g7
tp4782
Rp4783
(I1
(I4
tp4784
g14
I00
S'\xcbG\xf2>BC/@\x15\xd98AAq\xa7A'
p4785
tp4786
bsg30
g20
(g14
S'\x00\x00\xbcB'
p4787
tp4788
Rp4789
sg34
g35
(F-5.711999893188477
F14.535999298095703
tp4790
Rp4791
sg38
g35
(F-9.725000381469727
F4.329999923706055
tp4792
Rp4793
sg41
g20
(g14
S'\x00\x00\xb0B'
p4794
tp4795
Rp4796
ssS'Ta'
p4797
(dp4798
g3
g4
(g5
(I0
tp4799
g7
tp4800
Rp4801
(I1
(I4
tp4802
g14
I00
S'\x84\x9e\xe9A6\xabsAL7hA:z\x98@'
p4803
tp4804
bsg19
g20
(g14
S'\x8a\xe5\x13A'
p4805
tp4806
Rp4807
sg7
g4
(g5
(I0
tp4808
g7
tp4809
Rp4810
(I1
(I4
tp4811
g14
I00
S'z\xfc\xe2?g\xed\x15AL\x8a\x97>%u}B'
p4812
tp4813
bsg30
g20
(g14
S'\x00\x00\x92B'
p4814
tp4815
Rp4816
sg34
g35
(F-6.35099983215332
F5.270999908447266
tp4817
Rp4818
sg38
g35
(F-1.2580000162124634
F6.5229997634887695
tp4819
Rp4820
sg41
g20
(g14
S'\x00\x00\x92B'
p4821
tp4822
Rp4823
ssS'Pb+2'
p4824
(dp4825
g3
g4
(g5
(I0
tp4826
g7
tp4827
Rp4828
(I1
(I4
tp4829
g14
I00
S'\x0eO\xaeA\xac\x8b\x9cA\xf3\x1f\x99A\xafZ\xe0@'
p4830
tp4831
bsg19
g20
(g14
S'\x0c\x93GA'
p4832
tp4833
Rp4834
sg7
g4
(g5
(I0
tp4835
g7
tp4836
Rp4837
(I1
(I4
tp4838
g14
I00
S'\xb5\x15\xab?V\r\xfa>\xf5\xb9\xd8@o\x81\xbeA'
p4839
tp4840
bsg30
g20
(g14
S'\x00\x00\xa4B'
p4841
tp4842
Rp4843
sg34
g35
(F-4.817999839782715
F8.505000114440918
tp4844
Rp4845
sg38
g35
(F-4.132999897003174
F10.10200023651123
tp4846
Rp4847
sg41
g20
(g14
S'\x00\x00\xa0B'
p4848
tp4849
Rp4850
ssS'La+3'
p4851
(dp4852
g3
g4
(g5
(I0
tp4853
g7
tp4854
Rp4855
(I1
(I4
tp4856
g14
I00
S'\xbf\xfd\xa1A\xaa\x02\x9bA\xe6\x1d:A|\x0e\xac>'
p4857
tp4858
bsg19
g20
(g14
S'\x81&\x1a@'
p4859
tp4860
Rp4861
sg7
g4
(g5
(I0
tp4862
g7
tp4863
Rp4864
(I1
(I4
tp4865
g14
I00
S'\xc0\xec:@}[\x80>\x9d\x91\x8eA\xfc\xc7[B'
p4866
tp4867
bsg30
g20
(g14
S'\x00\x00dB'
p4868
tp4869
Rp4870
sg34
g35
(F-1.715999960899353
F9.035999298095703
tp4871
Rp4872
sg38
g35
(F-0.5879999995231628
F2.4519999027252197
tp4873
Rp4874
sg41
g20
(g14
S'\x00\x00XB'
p4875
tp4876
Rp4877
ssS'Tb+3'
p4878
(dp4879
g3
g4
(g5
(I0
tp4880
g7
tp4881
Rp4882
(I1
(I4
tp4883
g14
I00
S'\xaf\xa5\xc7A\xe6\x9d\xa2A\x1f\xf4CA\xd5xq@'
p4884
tp4885
bsg19
g20
(g14
S'\xc0$1?'
p4886
tp4887
Rp4888
sg7
g4
(g5
(I0
tp4889
g7
tp4890
Rp4891
(I1
(I4
tp4892
g14
I00
S'\xab\x95\x03@\x15\x1d\x19>d\xcc A\xe97\xaaA'
p4893
tp4894
bsg30
g20
(g14
S'\x00\x00\x82B'
p4895
tp4896
Rp4897
sg34
g35
(F-9.498000144958496
F9.241999626159668
tp4898
Rp4899
sg38
g35
(F-0.5910000205039978
F4.151000022888184
tp4900
Rp4901
sg41
g20
(g14
S'\x00\x00xB'
p4902
tp4903
Rp4904
ssS'Pb+4'
p4905
(dp4906
g3
g4
(g5
(I0
tp4907
g7
tp4908
Rp4909
(I1
(I4
tp4910
g14
I00
S'b\x7f\x00B\x04g\x96A\xaeG@A\xe7\x00\xdf@'
p4911
tp4912
bsg19
g20
(g14
S'6Y\x01A'
p4913
tp4914
Rp4915
sg7
g4
(g5
(I0
tp4916
g7
tp4917
Rp4918
(I1
(I4
tp4919
g14
I00
S'x\xb9\x80?\x0f\x7f\xc3@\xea\x91\x16>\x8blkA'
p4920
tp4921
bsg30
g20
(g14
S'\x00\x00\xa4B'
p4922
tp4923
Rp4924
sg34
g35
(F-4.817999839782715
F8.505000114440918
tp4925
Rp4926
sg38
g35
(F-4.132999897003174
F10.10200023651123
tp4927
Rp4928
sg41
g20
(g14
S'\x00\x00\x9cB'
p4929
tp4930
Rp4931
ssS'Pu+4'
p4932
(dp4933
g3
g4
(g5
(I0
tp4934
g7
tp4935
Rp4936
(I1
(I4
tp4937
g14
I00
S'\xe2\x98\x0eB\x02+\xb5A\x83\xc0UA\xa3\x06\xa6@'
p4938
tp4939
bsg19
g20
(g14
S'\xee|RA'
p4940
tp4941
Rp4942
sg7
g4
(g5
(I0
tp4943
g7
tp4944
Rp4945
(I1
(I4
tp4946
g14
I00
S'\xf2|\xf6>\t\xf98@V\x0e5A\x0b\xa4\xaeA'
p4947
tp4948
bsg30
g20
(g14
S'\x00\x00\xbcB'
p4949
tp4950
Rp4951
sg34
g35
(F-5.711999893188477
F14.535999298095703
tp4952
Rp4953
sg38
g35
(F-9.725000381469727
F4.329999923706055
tp4954
Rp4955
sg41
g20
(g14
S'\x00\x00\xb4B'
p4956
tp4957
Rp4958
ssS'Yb'
p4959
(dp4960
g3
g4
(g5
(I0
tp4961
g7
tp4962
Rp4963
(I1
(I4
tp4964
g14
I00
S'\x14P\xe5A\xb6\xf3vAo\xf0tA\x19V?@'
p4965
tp4966
bsg19
g20
(g14
S'\x92"\xf2@'
p4967
tp4968
Rp4969
sg7
g4
(g5
(I0
tp4970
g7
tp4971
Rp4972
(I1
(I4
tp4973
g14
I00
S'F\x94\xfe?\x1a\xa5\x83>\x9c\xa2*A\x81\xd5\xc8B'
p4974
tp4975
bsg30
g20
(g14
S'\x00\x00\x8cB'
p4976
tp4977
Rp4978
sg34
g35
(F-7.701000213623047
F4.432000160217285
tp4979
Rp4980
sg38
g35
(F-0.8840000033378601
F5.547999858856201
tp4981
Rp4982
sg41
g20
(g14
S'\x00\x00\x8cB'
p4983
tp4984
Rp4985
ssS'K+1'
p4986
(dp4987
g3
g4
(g5
(I0
tp4988
g7
tp4989
Rp4990
(I1
(I4
tp4991
g14
I00
S'L\xa6\xfe@\x02\xbc\xef@\xee|\xcb@\x12\x83\x98?'
p4992
tp4993
bsg19
g20
(g14
S'\xfa\xed\x9f\xc0'
p4994
tp4995
Rp4996
sg7
g4
(g5
(I0
tp4997
g7
tp4998
Rp4999
(I1
(I4
tp5000
g14
I00
S'-!JATtD?o\x12\x03\xbbjM\xffA'
p5001
tp5002
bsg30
g20
(g14
S'\x00\x00\x98A'
p5003
tp5004
Rp5005
sg34
g35
(F0.36500000953674316
F1.065999984741211
tp5006
Rp5007
sg38
g35
(F0.17900000512599945
F0.25
tp5008
Rp5009
sg41
g20
(g14
S'\x00\x00\x90A'
p5010
tp5011
Rp5012
ssS'Po'
p5013
(dp5014
g3
g4
(g5
(I0
tp5015
g7
tp5016
Rp5017
(I1
(I4
tp5018
g14
I00
S'\xbe\xb0\nB\xa3\x92wA \xd2QA\x02\xd4\xe0@'
p5019
tp5020
bsg19
g20
(g14
S'\xfe\xd4ZA'
p5021
tp5022
Rp5023
sg7
g4
(g5
(I0
tp5024
g7
tp5025
Rp5026
(I1
(I4
tp5027
g14
I00
S'\xact3?\xfb?c@\x18\xe7\x18A\x9c\x04<B'
p5028
tp5029
bsg30
g20
(g14
S'\x00\x00\xa8B'
p5030
tp5031
Rp5032
sg34
g35
(F-4.75600004196167
F9.382999420166016
tp5033
Rp5034
sg38
g35
(F-5.923999786376953
F11.041999816894531
tp5035
Rp5036
sg41
g20
(g14
S'\x00\x00\xa8B'
p5037
tp5038
Rp5039
ssS'Be+2'
p5040
(dp5041
g3
g4
(g5
(I0
tp5042
g7
tp5043
Rp5044
(I1
(I4
tp5045
g14
I00
S'aT\xc8@\xce\x88b?\xed\x9eL?\x1e\xa7(>'
p5046
tp5047
bsg19
g20
(g14
S'\x91~\xc3\xc0'
p5048
tp5049
Rp5050
sg7
g4
(g5
(I0
tp5051
g7
tp5052
Rp5053
(I1
(I4
tp5054
g14
I00
S'|\xf20;\x14\xd0T?\xb5\xa6\x11@\xce\xaa\xa3@'
p5055
tp5056
bsg30
g20
(g14
S'\x00\x00\x80@'
p5057
tp5058
Rp5059
sg34
g35
(F0.003000000026077032
F0.0010000000474974513
tp5060
Rp5061
sg38
g35
(F0.0
F0.0
tp5062
Rp5063
sg41
g20
(g14
S'\x00\x00\x00@'
p5064
tp5065
Rp5066
ssS'Pd+2'
p5067
(dp5068
g3
g4
(g5
(I0
tp5069
g7
tp5070
Rp5071
(I1
(I4
tp5072
g14
I00
S']\\\x99A\x86ZsA\x9cP\x8a@\x00\x00\x00\x00'
p5073
tp5074
bsg19
g20
(g14
S'\xcaT\xa9@'
p5075
tp5076
Rp5077
sg7
g4
(g5
(I0
tp5078
g7
tp5079
Rp5080
(I1
(I4
tp5081
g14
I00
S'i;2?\x8a\xc8\xf1@\xac\x0b\xb4A\x00\x00\x00\x00'
p5082
tp5083
bsg30
g20
(g14
S'\x00\x008B'
p5084
tp5085
Rp5086
sg34
g35
(F-0.05900000035762787
F3.934000015258789
tp5087
Rp5088
sg38
g35
(F-1.1770000457763672
F1.0069999694824219
tp5089
Rp5090
sg41
g20
(g14
S'\x00\x000B'
p5091
tp5092
Rp5093
ssS'Pd+4'
p5094
(dp5095
g3
g4
(g5
(I0
tp5096
g7
tp5097
Rp5098
(I1
(I4
tp5099
g14
I00
S'\x91\xfe\x99A\xd7\xa3lA\x1c%9@\xd9_\xfe\xc0'
p5100
tp5101
bsg19
g20
(g14
S'EGPA'
p5102
tp5103
Rp5104
sg7
g4
(g5
(I0
tp5105
g7
tp5106
Rp5107
(I1
(I4
tp5108
g14
I00
S'\x13\x10/?\x1f\xbf\xe4@\xb1P\x8fAe\x00\xa8;'
p5109
tp5110
bsg30
g20
(g14
S'\x00\x008B'
p5111
tp5112
Rp5113
sg34
g35
(F-0.05900000035762787
F3.934000015258789
tp5114
Rp5115
sg38
g35
(F-1.1770000457763672
F1.0069999694824219
tp5116
Rp5117
sg41
g20
(g14
S'\x00\x00(B'
p5118
tp5119
Rp5120
ssS'Dy'
p5121
(dp5122
g3
g4
(g5
(I0
tp5123
g7
tp5124
Rp5125
(I1
(I4
tp5126
g14
I00
S'V\x0e\xd4A=\x1b\x8dA\x1f\xf4hA-\xcf=@'
p5127
tp5128
bsg19
g20
(g14
S'Q\x83\x89@'
p5129
tp5130
Rp5131
sg7
g4
(g5
(I0
tp5132
g7
tp5133
Rp5134
(I1
(I4
tp5135
g14
I00
S'f\x88\x0b@-\x06O>\xd4\tCA}\xbf\xdfB'
p5136
tp5137
bsg30
g20
(g14
S'\x00\x00\x84B'
p5138
tp5139
Rp5140
sg34
g35
(F-10.42300033569336
F9.748000144958496
tp5141
Rp5142
sg38
g35
(F-0.6190000176429749
F4.409999847412109
tp5143
Rp5144
sg41
g20
(g14
S'\x00\x00\x84B'
p5145
tp5146
Rp5147
ssS'Au'
p5148
(dp5149
g3
g4
(g5
(I0
tp5150
g7
tp5151
Rp5152
(I1
(I4
tp5153
g14
I00
S'"\x0e\x87A\xfb\xba\x94A2w\xccA\x1f\x85\xbb@'
p5154
tp5155
bsg19
g20
(g14
S'\x84\rAA'
p5156
tp5157
Rp5158
sg7
g4
(g5
(I0
tp5159
g7
tp5160
Rp5161
(I1
(I4
tp5162
g14
I00
S'M\x15\xec>\x13\xf2\tA\xd6\xc5\xbd?\x18\x95\x11B'
p5163
tp5164
bsg30
g20
(g14
S'\x00\x00\x9eB'
p5165
tp5166
Rp5167
sg34
g35
(F-5.0960001945495605
F7.296999931335449
tp5168
Rp5169
sg38
g35
(F-2.687999963760376
F8.79800033569336
tp5170
Rp5171
sg41
g20
(g14
S'\x00\x00\x9eB'
p5172
tp5173
Rp5174
ssS'Cs+1'
p5175
(dp5176
g3
g4
(g5
(I0
tp5177
g7
tp5178
Rp5179
(I1
(I4
tp5180
g14
I00
S'\xb7\xd1\xa2A\xbc\x05\x99A{\x83$A\xdd$v?'
p5181
tp5182
bsg19
g20
(g14
S'\xc6\xdcQ@'
p5183
tp5184
Rp5185
sg7
g4
(g5
(I0
tp5186
g7
tp5187
Rp5188
(I1
(I4
tp5189
g14
I00
S'\xf8Sc@\xd2\x00\x9e>\xd0\xb3\xbdAt\xd3mB'
p5190
tp5191
bsg30
g20
(g14
S'\x00\x00\\B'
p5192
tp5193
Rp5194
sg34
g35
(F-1.0219999551773071
F7.9039998054504395
tp5195
Rp5196
sg38
g35
(F-0.6439999938011169
F2.11899995803833
tp5197
Rp5198
sg41
g20
(g14
S'\x00\x00XB'
p5199
tp5200
Rp5201
ssS'I'
p5202
(dp5203
g3
g4
(g5
(I0
tp5204
g7
tp5205
Rp5206
(I1
(I4
tp5207
g14
I00
S'w-\xa1A\x8e\xf5\x97A\rq\xf0@\x06\x81\x11@'
p5208
tp5209
bsg19
g20
(g14
S'EG\x82@'
p5210
tp5211
Rp5212
sg7
g4
(g5
(I0
tp5213
g7
tp5214
Rp5215
(I1
(I4
tp5216
g14
I00
S'\xa0\x1a\x8b@\xdcF\xc3>\xc4 \xdeAU\xc1\x85B'
p5217
tp5218
bsg30
g20
(g14
S'\x00\x00TB'
p5219
tp5220
Rp5221
sg34
g35
(F-0.5789999961853027
F6.835000038146973
tp5222
Rp5223
sg38
g35
(F-0.7260000109672546
F1.812000036239624
tp5224
Rp5225
sg41
g20
(g14
S'\x00\x00TB'
p5226
tp5227
Rp5228
ssS'Pr+4'
p5229
(dp5230
g3
g4
(g5
(I0
tp5231
g7
tp5232
Rp5233
(I1
(I4
tp5234
g14
I00
S'\xc8\x87\xa7Acn\xa0A\x03xGA\x9f\xe7\x97>'
p5235
tp5236
bsg19
g20
(g14
S'\xb5\x15\x9f?'
p5237
tp5238
Rp5239
sg7
g4
(g5
(I0
tp5240
g7
tp5241
Rp5242
(I1
(I4
tp5243
g14
I00
S'\xe0\xdb"@.WO>\xea\x04mAq\xdb5B'
p5244
tp5245
bsg30
g20
(g14
S'\x00\x00lB'
p5246
tp5247
Rp5248
sg34
g35
(F-2.938999891281128
F10.53499984741211
tp5249
Rp5250
sg38
g35
(F-0.5299999713897705
F2.8450000286102295
tp5251
Rp5252
sg41
g20
(g14
S'\x00\x00\\B'
p5253
tp5254
Rp5255
ssS'U'
p5256
(dp5257
g3
g4
(g5
(I0
tp5258
g7
tp5259
Rp5260
(I1
(I4
tp5261
g14
I00
S'Y\x17\x10BjM\xbbA\x83/oA\x19\x04\x86@'
p5262
tp5263
bsg19
g20
(g14
S'yXVA'
p5264
tp5265
Rp5266
sg7
g4
(g5
(I0
tp5267
g7
tp5268
Rp5269
(I1
(I4
tp5270
g14
I00
S'4\x80\x07?\xb7\xd1T@\xd9\xbd\x80A\xdb9\xc9B'
p5271
tp5272
bsg30
g20
(g14
S'\x00\x00\xb8B'
p5273
tp5274
Rp5275
sg34
g35
(F-5.359000205993652
F13.409000396728516
tp5276
Rp5277
sg38
g35
(F-10.67300033569336
F9.653999328613281
tp5278
Rp5279
sg41
g20
(g14
S'\x00\x00\xb8B'
p5280
tp5281
Rp5282
ssS'Y'
p5283
(dp5284
g3
g4
(g5
(I0
tp5285
g7
tp5286
Rp5287
(I1
(I4
tp5288
g14
I00
S'?5\x8eA\xae\xb6$A\xc5=\xb7@.\x04Q@'
p5289
tp5290
bsg19
g20
(g14
S'\xad\xc0\xf4?'
p5291
tp5292
Rp5293
sg7
g4
(g5
(I0
tp5294
g7
tp5295
Rp5296
(I1
(I4
tp5297
g14
I00
S':\x92\xb3?B\xcfLA\x06\x9d\x00>?\xb5\xd0B'
p5298
tp5299
bsg30
g20
(g14
S'\x00\x00\x1cB'
p5300
tp5301
Rp5302
sg34
g35
(F-0.38600000739097595
F2.0250000953674316
tp5303
Rp5304
sg38
g35
(F-2.9509999752044678
F3.5420000553131104
tp5305
Rp5306
sg41
g20
(g14
S'\x00\x00\x1cB'
p5307
tp5308
Rp5309
ssS'Ac'
p5310
(dp5311
g3
g4
(g5
(I0
tp5312
g7
tp5313
Rp5314
(I1
(I4
tp5315
g14
I00
S'\x88\xa3\x0eBZ\xd3\xb8A.\x90IA\x05\xc5\x82@'
p5316
tp5317
bsg19
g20
(g14
S'\xf4lXA'
p5318
tp5319
Rp5320
sg7
g4
(g5
(I0
tp5321
g7
tp5322
Rp5323
(I1
(I4
tp5324
g14
I00
S'\xbc\xce\x16?\xff\xb2i@\xc0\xca\x94A=\n\xeaB'
p5325
tp5326
bsg30
g20
(g14
S'\x00\x00\xb2B'
p5327
tp5328
Rp5329
sg34
g35
(F-4.99399995803833
F11.798999786376953
tp5330
Rp5331
sg38
g35
(F-7.724999904632568
F8.472000122070312
tp5332
Rp5333
sg41
g20
(g14
S'\x00\x00\xb2B'
p5334
tp5335
Rp5336
ssS'Ag'
p5337
(dp5338
g3
g4
(g5
(I0
tp5339
g7
tp5340
Rp5341
(I1
(I4
tp5342
g14
I00
S'\x14?\x9aA\x0c\x82\x85Aw\xbe\x99@)\xed\x85?'
p5343
tp5344
bsg19
g20
(g14
S'^\xba\xa5@'
p5345
tp5346
Rp5347
sg7
g4
(g5
(I0
tp5348
g7
tp5349
Rp5350
(I1
(I4
tp5351
g14
I00
S'\x81\x04%?\x8a\x1f\xef@\xb4H\xc5A\x96\xa1\xc7B'
p5352
tp5353
bsg30
g20
(g14
S'\x00\x00<B'
p5354
tp5355
Rp5356
sg34
g35
(F-0.05999999865889549
F4.2820000648498535
tp5357
Rp5358
sg38
g35
(F-1.0850000381469727
F1.1009999513626099
tp5359
Rp5360
sg41
g20
(g14
S'\x00\x00<B'
p5361
tp5362
Rp5363
ssS'P'
p5364
(dp5365
g3
g4
(g5
(I0
tp5366
g7
tp5367
Rp5368
(I1
(I4
tp5369
g14
I00
S'm\xe7\xcd@0\xbb\x85@\n\xd7\xe3?\x89\xd2\xbe?'
p5370
tp5371
bsg19
g20
(g14
S'\x0b\xb5\x8e?'
p5372
tp5373
Rp5374
sg7
g4
(g5
(I0
tp5375
g7
tp5376
Rp5377
(I1
(I4
tp5378
g14
I00
S'\xbf\x0e\xf4?\x89A\xd9A\xf0\xa7\x06?9T\x88B'
p5379
tp5380
bsg30
g20
(g14
S'\x00\x00pA'
p5381
tp5382
Rp5383
sg34
g35
(F0.28299999237060547
F0.4339999854564667
tp5384
Rp5385
sg38
g35
(F0.09000000357627869
F0.0949999988079071
tp5386
Rp5387
sg41
g20
(g14
S'\x00\x00pA'
p5388
tp5389
Rp5390
ssS'Cu+1'
p5391
(dp5392
g3
g4
(g5
(I0
tp5393
g7
tp5394
Rp5395
(I1
(I4
tp5396
g14
I00
S'\xf6(?A\x00o\xeb@#\xdb\xc7@\xfee\xc7?'
p5397
tp5398
bsg19
g20
(g14
S'\n\xd7c?'
p5399
tp5400
Rp5401
sg7
g4
(g5
(I0
tp5402
g7
tp5403
Rp5404
(I1
(I4
tp5405
g14
I00
S'J{W@\x8c\xdbh>\x9a\x99\nA#\xca\xceA'
p5406
tp5407
bsg30
g20
(g14
S'\x00\x00\xe8A'
p5408
tp5409
Rp5410
sg34
g35
(F-2.0190000534057617
F0.5889999866485596
tp5411
Rp5412
sg38
g35
(F0.2630000114440918
F1.2660000324249268
tp5413
Rp5414
sg41
g20
(g14
S'\x00\x00\xe0A'
p5415
tp5416
Rp5417
ssS'Cu+2'
p5418
(dp5419
g3
g4
(g5
(I0
tp5420
g7
tp5421
Rp5422
(I1
(I4
tp5423
g14
I00
S'\x9d\x11=A\xf3\x93\xe3@\xd2\x00\xb9@\xe6\x96\x92?'
p5424
tp5425
bsg19
g20
(g14
S'\xc0x\x92?'
p5426
tp5427
Rp5428
sg7
g4
(g5
(I0
tp5429
g7
tp5430
Rp5431
(I1
(I4
tp5432
g14
I00
S'a\xfdW@\x95\xefy>k\x9a\xff@\x0e-\x9fA'
p5433
tp5434
bsg30
g20
(g14
S'\x00\x00\xe8A'
p5435
tp5436
Rp5437
sg34
g35
(F-2.0190000534057617
F0.5889999866485596
tp5438
Rp5439
sg38
g35
(F0.2630000114440918
F1.2660000324249268
tp5440
Rp5441
sg41
g20
(g14
S'\x00\x00\xd8A'
p5442
tp5443
Rp5444
ssS'Ba+2'
p5445
(dp5446
g3
g4
(g5
(I0
tp5447
g7
tp5448
Rp5449
(I1
(I4
tp5450
g14
I00
S'\x13r\xa1A\xa7\xe8\x98A\x84|.A8\xbeF?'
p5451
tp5452
bsg19
g20
(g14
S'w\xdbA@'
p5453
tp5454
Rp5455
sg7
g4
(g5
(I0
tp5456
g7
tp5457
Rp5458
(I1
(I4
tp5459
g14
I00
S'\xc5\xacM@\x02\x0e\x91>Gr\xa0A\xe7\xfbNB'
p5460
tp5461
bsg30
g20
(g14
S'\x00\x00`B'
p5462
tp5463
Rp5464
sg34
g35
(F-1.3339999914169312
F8.460000038146973
tp5465
Rp5466
sg38
g35
(F-0.6129999756813049
F2.2820000648498535
tp5467
Rp5468
sg41
g20
(g14
S'\x00\x00XB'
p5469
tp5470
Rp5471
ssS'Al'
p5472
(dp5473
g3
g4
(g5
(I0
tp5474
g7
tp5475
Rp5476
(I1
(I4
tp5477
g14
I00
S'Gr\xcd@\xc19\xf3?\x16\xfb\xcb?\x03x\xfb?'
p5478
tp5479
bsg19
g20
(g14
S'\x99\xbb\x8e?'
p5480
tp5481
Rp5482
sg7
g4
(g5
(I0
tp5483
g7
tp5484
Rp5485
(I1
(I4
tp5486
g14
I00
S'\x10zB@\t\x1b>?\xaa`\xfcA]-\xaaB'
p5487
tp5488
bsg30
g20
(g14
S'\x00\x00PA'
p5489
tp5490
Rp5491
sg34
g35
(F0.20399999618530273
F0.2460000067949295
tp5492
Rp5493
sg38
g35
(F0.0560000017285347
F0.052000001072883606
tp5494
Rp5495
sg41
g20
(g14
S'\x00\x00PA'
p5496
tp5497
Rp5498
ssS'Pr+3'
p5499
(dp5500
g3
g4
(g5
(I0
tp5501
g7
tp5502
Rp5503
(I1
(I4
tp5504
g14
I00
S'J\xfb\xaaA(\xfe\x9dA\\ BAe\xa5y?'
p5505
tp5506
bsg19
g20
(g14
S'\x9d\xba\xe2?'
p5507
tp5508
Rp5509
sg7
g4
(g5
(I0
tp5510
g7
tp5511
Rp5512
(I1
(I4
tp5513
g14
I00
S'\xf5J)@2q[>\x02+uAB\xa0\x11B'
p5514
tp5515
bsg30
g20
(g14
S'\x00\x00lB'
p5516
tp5517
Rp5518
sg34
g35
(F-2.938999891281128
F10.53499984741211
tp5519
Rp5520
sg38
g35
(F-0.5299999713897705
F2.8450000286102295
tp5521
Rp5522
sg41
g20
(g14
S'\x00\x00`B'
p5523
tp5524
Rp5525
ssS'As'
p5526
(dp5527
g3
g4
(g5
(I0
tp5528
g7
tp5529
Rp5530
(I1
(I4
tp5531
g14
I00
S'\xdf`\x85AB>\xc2@k\x9a[@\x8f\xe4\x88@'
p5532
tp5533
bsg19
g20
(g14
S'\xe7\xfb!@'
p5534
tp5535
Rp5536
sg7
g4
(g5
(I0
tp5537
g7
tp5538
Rp5539
(I1
(I4
tp5540
g14
I00
S'\xa6\x9b(@\xc2\x86\x87>\x99*OAU0?B'
p5541
tp5542
bsg30
g20
(g14
S'\x00\x00\x04B'
p5543
tp5544
Rp5545
sg34
g35
(F-1.0110000371932983
F1.00600004196167
tp5546
Rp5547
sg38
g35
(F-0.029999999329447746
F2.006999969482422
tp5548
Rp5549
sg41
g20
(g14
S'\x00\x00\x04B'
p5550
tp5551
Rp5552
ssS'Ar'
p5553
(dp5554
g3
g4
(g5
(I0
tp5555
g7
tp5556
Rp5557
(I1
(I4
tp5558
g14
I00
S"\x06\x81\xef@\xae\xb6\xd8@\xfee'?%u\xd2?"
p5559
tp5560
bsg19
g20
(g14
S'`\xe5\xb8?'
p5561
tp5562
Rp5563
sg7
g4
(g5
(I0
tp5564
g7
tp5565
Rp5566
(I1
(I4
tp5567
g14
I00
S'B>h?\x82smA\xdc\x97/BT\x92\x05B'
p5568
tp5569
bsg30
g20
(g14
S'\x00\x00\x90A'
p5570
tp5571
Rp5572
sg34
g35
(F0.3659999966621399
F0.871999979019165
tp5573
Rp5574
sg38
g35
(F0.1550000011920929
F0.20100000500679016
tp5575
Rp5576
sg41
g20
(g14
S'\x00\x00\x90A'
p5577
tp5578
Rp5579
ssS'Nd+3'
p5580
(dp5581
g3
g4
(g5
(I0
tp5582
g7
tp5583
Rp5584
(I1
(I4
tp5585
g14
I00
S'!\xb0\xafA\xa0x\x9fA\x85\xebAA\xd7Q\xc1?'
p5586
tp5587
bsg19
g20
(g14
S'\xa3\xe9\xbc?'
p5588
tp5589
Rp5590
sg7
g4
(g5
(I0
tp5591
g7
tp5592
Rp5593
(I1
(I4
tp5594
g14
I00
S'\xf9\xbd!@\xc9\x04L>Q\xdabA>\xf9\xf6A'
p5595
tp5596
bsg30
g20
(g14
S'\x00\x00pB'
p5597
tp5598
Rp5599
sg34
g35
(F-3.430999994277954
F10.932999610900879
tp5600
Rp5601
sg38
g35
(F-0.5350000262260437
F3.0179998874664307
tp5602
Rp5603
sg41
g20
(g14
S'\x00\x00dB'
p5604
tp5605
Rp5606
ssS'At'
p5607
(dp5608
g3
g4
(g5
(I0
tp5609
g7
tp5610
Rp5611
(I1
(I4
tp5612
g14
I00
S'\xe4C\rB6+\x98A_\xfb\x17A\x13\x9b\xed@'
p5613
tp5614
bsg19
g20
(g14
S'p_[A'
p5615
tp5616
Rp5617
sg7
g4
(g5
(I0
tp5618
g7
tp5619
Rp5620
(I1
(I4
tp5621
g14
I00
S'-\x95/?\x85_~@O\x1e6A\xd1\xe25B'
p5622
tp5623
bsg30
g20
(g14
S'\x00\x00\xaaB'
p5624
tp5625
Rp5626
sg34
g35
(F-4.771999835968018
F9.843000411987305
tp5627
Rp5628
sg38
g35
(F-7.443999767303467
F9.961000442504883
tp5629
Rp5630
sg41
g20
(g14
S'\x00\x00\xaaB'
p5631
tp5632
Rp5633
ssS'In'
p5634
(dp5635
g3
g4
(g5
(I0
tp5636
g7
tp5637
Rp5638
(I1
(I4
tp5639
g14
I00
S'\x98L\x99A\x10z\x94A\x00o\x89@\xce\x88\x02@'
p5640
tp5641
bsg19
g20
(g14
S'\x1b\r\x9e@'
p5642
tp5643
Rp5644
sg7
g4
(g5
(I0
tp5645
g7
tp5646
Rp5647
(I1
(I4
tp5648
g14
I00
S'\x83/\x0c?M\x15\xcc@\x98\xcc\xceA\x16\x9b\xb9B'
p5649
tp5650
bsg30
g20
(g14
S'\x00\x00DB'
p5651
tp5652
Rp5653
sg34
g35
(F-0.12600000202655792
F5.045000076293945
tp5654
Rp5655
sg38
g35
(F-0.9359999895095825
F1.309999942779541
tp5656
Rp5657
sg41
g20
(g14
S'\x00\x00DB'
p5658
tp5659
Rp5660
ssS'Cr+2'
p5661
(dp5662
g3
g4
(g5
(I0
tp5663
g7
tp5664
Rp5665
(I1
(I4
tp5666
g14
I00
S'<\xa5\x18A_\x07\xf8@\x9dKe@\xd6T\x02?'
p5667
tp5668
bsg19
g20
(g14
S'\x07\xed\x1d?'
p5669
tp5670
Rp5671
sg7
g4
(g5
(I0
tp5672
g7
tp5673
Rp5674
(I1
(I4
tp5675
g14
I00
S'\x1c%\xb5@\xfaB\xb0>\x85\xebTA\x8a\xb0\x01B'
p5676
tp5677
bsg30
g20
(g14
S'\x00\x00\xc0A'
p5678
tp5679
Rp5680
sg34
g35
(F-0.1979999989271164
F2.443000078201294
tp5681
Rp5682
sg38
g35
(F0.2840000092983246
F0.6240000128746033
tp5683
Rp5684
sg41
g20
(g14
S'\x00\x00\xb0A'
p5685
tp5686
Rp5687
ssS'Cr+3'
p5688
(dp5689
g3
g4
(g5
(I0
tp5690
g7
tp5691
Rp5692
(I1
(I4
tp5693
g14
I00
S'\xf7\xe4\x1aA\xa9\xf6\xf9@\xe0\x108@\x02\x9a\xe8='
p5694
tp5695
bsg19
g20
(g14
S'\xac\xad\x04?'
p5696
tp5697
Rp5698
sg7
g4
(g5
(I0
tp5699
g7
tp5700
Rp5701
(I1
(I4
tp5702
g14
I00
S'5\x07\xb3@\x8f5\xab>\xc4BMA \x81\x03B'
p5703
tp5704
bsg30
g20
(g14
S'\x00\x00\xc0A'
p5705
tp5706
Rp5707
sg34
g35
(F-0.1979999989271164
F2.443000078201294
tp5708
Rp5709
sg38
g35
(F0.2840000092983246
F0.6240000128746033
tp5710
Rp5711
sg41
g20
(g14
S'\x00\x00\xa8A'
p5712
tp5713
Rp5714
ssS'W+6'
p5715
(dp5716
g3
g4
(g5
(I0
tp5717
g7
tp5718
Rp5719
(I1
(I4
tp5720
g14
I00
S'\xe4\xf2\xebA\xaa\x02\x9bA\xd1\xdePAE\r\xa2@'
p5721
tp5722
bsg19
g20
(g14
S'\xee_\x81?'
p5723
tp5724
Rp5725
sg7
g4
(g5
(I0
tp5726
g7
tp5727
Rp5728
(I1
(I4
tp5729
g14
I00
S"\xf5\xb9\xb6?\x89C\xd6=3\xf9\xbd@\xbb'3A"
p5730
tp5731
bsg30
g20
(g14
S'\x00\x00\x94B'
p5732
tp5733
Rp5734
sg34
g35
(F-6.047999858856201
F5.577000141143799
tp5735
Rp5736
sg38
g35
(F-1.4210000038146973
F6.872000217437744
tp5737
Rp5738
sg41
g20
(g14
S'\x00\x00\x88B'
p5739
tp5740
Rp5741
ss.