(dp0
S'Ru'
p1
ccopy_reg
_reconstructor
p2
(celements
Atom5G
p3
c__builtin__
object
p4
Ntp5
Rp6
(dp7
S'a'
p8
cnumpy.core.multiarray
_reconstruct
p9
(cnumpy
ndarray
p10
(I0
tp11
S'b'
p12
tp13
Rp14
(I1
(I4
tp15
cnumpy
dtype
p16
(S'f4'
p17
I0
I1
tp18
Rp19
(I3
S'<'
p20
NNNI-1
I-1
I0
tp21
bI00
S'\xa2#\x9aA\xf2\xb0NA\xba\xa0\x9b@\xce\xa5\xc8?'
p22
tp23
bsS'c'
p24
cnumpy.core.multiarray
scalar
p25
(g19
S'\xa3\x1e\xac@'
p26
tp27
Rp28
sg12
g9
(g10
(I0
tp29
g12
tp30
Rp31
(I1
(I4
tp32
g19
I00
S'+\xfbN?g\xf4\x06A\xc9e\xc6A\xea\x95\xbcB'
p33
tp34
bsS'weight'
p35
g25
(g19
S'\x00\x000B'
p36
tp37
Rp38
sS'element'
p39
g1
sS'cu_f'
p40
c__builtin__
complex
p41
(F-0.10499999672174454
F3.2960000038146973
tp42
Rp43
sS'mo_f'
p44
g41
(F-1.4199999570846558
F0.8360000252723694
tp45
Rp46
sS'number_of_electrons'
p47
g25
(g19
S'\x00\x000B'
p48
tp49
Rp50
sbsS'Ac+3'
p51
g2
(g3
g4
Ntp52
Rp53
(dp54
g8
g9
(g10
(I0
tp55
g12
tp56
Rp57
(I1
(I4
tp58
g19
I00
S'\xc4\xb1\x0cB\xbd\xe3\xb0A\x16\x13\x03A?\xc6\xe1@'
p59
tp60
bsg24
g25
(g19
S'PkWA'
p61
tp62
Rp63
sg12
g9
(g10
(I0
tp64
g12
tp65
Rp66
(I1
(I4
tp67
g19
I00
S'\x80f\x14?\n\x85Z@\xff\xb2NA\xed\x8d\xcfA'
p68
tp69
bsg35
g25
(g19
S'\x00\x00\xb2B'
p70
tp71
Rp72
sg39
g51
sg40
g41
(F-4.99399995803833
F11.798999786376953
tp73
Rp74
sg44
g41
(F-7.724999904632568
F8.472000122070312
tp75
Rp76
sg47
g25
(g19
S'\x00\x00\xacB'
p77
tp78
Rp79
sbsS'Ge+4'
p80
g2
(g3
g4
Ntp81
Rp82
(dp83
g8
g9
(g10
(I0
tp84
g12
tp85
Rp86
(I1
(I4
tp87
g19
I00
S'\xda\xacNA\xa5f\xd6@R,\xc2@\x1c\xea[?'
p88
tp89
bsg24
g25
(g19
S'\x08U\xba?'
p90
tp91
Rp92
sg12
g9
(g10
(I0
tp93
g12
tp94
Rp95
(I1
(I4
tp96
g19
I00
S'(a"@\xa7\xcbR>\x08U\xaf@\xe3\xa59A'
p97
tp98
bsg35
g25
(g19
S'\x00\x00\x00B'
p99
tp100
Rp101
sg39
g80
sg40
g41
(F-1.1629999876022339
F0.8859999775886536
tp102
Rp103
sg44
g41
(F0.08100000023841858
F1.8009999990463257
tp104
Rp105
sg47
g25
(g19
S'\x00\x00\xe0A'
p106
tp107
Rp108
sbsS'F-1'
p109
g2
(g3
g4
Ntp110
Rp111
(dp112
g8
g9
(g10
(I0
tp113
g12
tp114
Rp115
(I1
(I4
tp116
g19
I00
S'\xf7uh@.\xad`@\xa7\\\xa1?\x1c\xd2p?'
p117
tp118
bsg24
g25
(g19
S"\xf6D'?"
p119
tp120
Rp121
sg12
g9
(g10
(I0
tp122
g12
tp123
Rp124
(I1
(I4
tp125
g19
I00
S'\xc6\xe1\xa8@\xca\xc3kA\xa4o\xe2>\xf3_=B'
p126
tp127
bsg35
g25
(g19
S'\x00\x00\x10A'
p128
tp129
Rp130
sg39
g109
sg40
g41
(F0.0689999982714653
F0.05299999937415123
tp131
Rp132
sg44
g41
(F0.014000000432133675
F0.009999999776482582
tp133
Rp134
sg47
g25
(g19
S'\x00\x00 A'
p135
tp136
Rp137
sbsS'Ni+2'
p138
g2
(g3
g4
Ntp139
Rp140
(dp141
g8
g9
(g10
(I0
tp142
g12
tp143
Rp144
(I1
(I4
tp145
g19
I00
S'e\xaa6A\xe5\xd0\xec@\xb0\x03\xab@U0z?'
p146
tp147
bsg24
g25
(g19
S'\xb6\x84\\?'
p148
tp149
Rp150
sg12
g9
(g10
(I0
tp151
g12
tp152
Rp153
(I1
(I4
tp154
g19
I00
S'jMk@\x11\xc7z>\xcf\xf7\rA\x01M\xb1A'
p155
tp156
bsg35
g25
(g19
S'\x00\x00\xe0A'
p157
tp158
Rp159
sg39
g138
sg40
g41
(F-2.9560000896453857
F0.5090000033378601
tp160
Rp161
sg44
g41
(F0.2849999964237213
F1.1130000352859497
tp162
Rp163
sg47
g25
(g19
S'\x00\x00\xd0A'
p164
tp165
Rp166
sbsS'Ni+3'
p167
g2
(g3
g4
Ntp168
Rp169
(dp170
g8
g9
(g10
(I0
tp171
g12
tp172
Rp173
(I1
(I4
tp174
g19
I00
S'V},A\x1bG\xf8@ZG\xa7@w\xdcX?'
p175
tp176
bsg24
g25
(g19
S'\x8f\xa7\xc5>'
p177
tp178
Rp179
sg12
g9
(g10
(I0
tp180
g12
tp181
Rp182
(I1
(I4
tp183
g19
I00
S'\x84\rc@\xd0~d>8\xa1\xf4@\x08\xbd\x87A'
p184
tp185
bsg35
g25
(g19
S'\x00\x00\xe0A'
p186
tp187
Rp188
sg39
g167
sg40
g41
(F-2.9560000896453857
F0.5090000033378601
tp189
Rp190
sg44
g41
(F0.2849999964237213
F1.1130000352859497
tp191
Rp192
sg47
g25
(g19
S'\x00\x00\xc8A'
p193
tp194
Rp195
sbsS'Ra'
p196
g2
(g3
g4
Ntp197
Rp198
(dp199
g8
g9
(g10
(I0
tp200
g12
tp201
Rp202
(I1
(I4
tp203
g19
I00
S'P\r\x0fBN@\xb7A\x18\x95GA\x88\x80M@'
p204
tp205
bsg24
g25
(g19
S'\x06\xf0YA'
p206
tp207
Rp208
sg12
g9
(g10
(I0
tp209
g12
tp210
Rp211
(I1
(I4
tp212
g19
I00
S'\x86\xc8\x1d?3\xc4w@\xdc\xe8\x9fA3S\x0eC'
p213
tp214
bsg35
g25
(g19
S'\x00\x00\xb0B'
p215
tp216
Rp217
sg39
g196
sg40
g41
(F-4.8979997634887695
F11.295999526977539
tp218
Rp219
sg44
g41
(F-7.619999885559082
F8.104999542236328
tp220
Rp221
sg47
g25
(g19
S'\x00\x00\xb0B'
p222
tp223
Rp224
sbsS'Rb'
p225
g2
(g3
g4
Ntp226
Rp227
(dp228
g8
g9
(g10
(I0
tp229
g12
tp230
Rp231
(I1
(I4
tp232
g19
I00
S']m\x89A\xc6K\x1aA\x10z\xa4@\xd3\xbc\xc3?'
p233
tp234
bsg24
g25
(g19
S'\xec/_@'
p235
tp236
Rp237
sg12
g9
(g10
(I0
tp238
g12
tp239
Rp240
(I1
(I4
tp241
g19
I00
S'f\xf7\xe4?S\x85\x8aA\x96\xb2\x8c>\x1a\xef$C'
p242
tp243
bsg35
g25
(g19
S'\x00\x00\x14B'
p244
tp245
Rp246
sg39
g225
sg40
g41
(F-0.5740000009536743
F1.6080000400543213
tp247
Rp248
sg44
g41
(F-1.0440000295639038
F2.9730000495910645
tp249
Rp250
sg47
g25
(g19
S'\x00\x00\x14B'
p251
tp252
Rp253
sbsS'Sb+3'
p254
g2
(g3
g4
Ntp255
Rp256
(dp257
g8
g9
(g10
(I0
tp258
g12
tp259
Rp260
(I1
(I4
tp261
g19
I00
S'\xd3\xcd\x97A\xc8v\x97A\xd6s\xa3@o\xd7\x93>'
p262
tp263
bsg24
g25
(g19
S'\xc3G\x96@'
p264
tp265
Rp266
sg12
g9
(g10
(I0
tp267
g12
tp268
Rp269
(I1
(I4
tp270
g19
I00
S'P4\xef>\x90\x14\xa7@\xbb\xb8\x9cA\x92\x0b^B'
p271
tp272
bsg35
g25
(g19
S'\x00\x00LB'
p273
tp274
Rp275
sg39
g254
sg40
g41
(F-0.28700000047683716
F5.894000053405762
tp276
Rp277
sg44
g41
(F-0.8159999847412109
F1.5460000038146973
tp278
Rp279
sg47
g25
(g19
S'\x00\x00@B'
p280
tp281
Rp282
sbsS'Rn'
p283
g2
(g3
g4
Ntp284
Rp285
(dp286
g8
g9
(g10
(I0
tp287
g12
tp288
Rp289
(I1
(I4
tp290
g19
I00
S'\x9d@\x0eB\xb8@\xaaA(\x0f\x00A\x83/\xee@'
p291
tp292
bsg24
g25
(g19
S'J\x0c[A'
p293
tp294
Rp295
sg12
g9
(g10
(I0
tp296
g12
tp297
Rp298
(I1
(I4
tp299
g19
I00
S'\xec\xc0)?\x116\x82@\xda\xac`A<\xfd0B'
p300
tp301
bsg35
g25
(g19
S'\x00\x00\xacB'
p302
tp303
Rp304
sg39
g283
sg40
g41
(F-4.7870001792907715
F10.316999435424805
tp305
Rp306
sg44
g41
(F-8.862000465393066
F10.402999877929688
tp307
Rp308
sg47
g25
(g19
S'\x00\x00\xacB'
p309
tp310
Rp311
sbsS'Rh'
p312
g2
(g3
g4
Ntp313
Rp314
(dp315
g8
g9
(g10
(I0
tp316
g12
tp317
Rp318
(I1
(I4
tp319
g19
I00
S'\x98]\x9aA\x02\x9aeA\xfa~\x97@\xda\x03\xa5?'
p320
tp321
bsg24
g25
(g19
S'\xfa~\xaa@'
p322
tp323
Rp324
sg12
g9
(g10
(I0
tp325
g12
tp326
Rp327
(I1
(I4
tp328
g19
I00
S'\xaad@?5{\x03A\xcc\xff\xceA`6\xc5B'
p329
tp330
bsg35
g25
(g19
S'\x00\x004B'
p331
tp332
Rp333
sg39
g312
sg40
g41
(F-0.07699999958276749
F3.6050000190734863
tp334
Rp335
sg44
g41
(F-1.2869999408721924
F0.9190000295639038
tp336
Rp337
sg47
g25
(g19
S'\x00\x004B'
p338
tp339
Rp340
sbsS'Mn+4'
p341
g2
(g3
g4
Ntp342
Rp343
(dp344
g8
g9
(g10
(I0
tp345
g12
tp346
Rp347
(I1
(I4
tp348
g19
I00
S'\x86f\x1fA\xe9\x0e\xff@\xd1\xae0@\xd1\x03_='
p349
tp350
bsg24
g25
(g19
S'\x06\xf6\x80>'
p351
tp352
Rp353
sg12
g9
(g10
(I0
tp354
g12
tp355
Rp356
(I1
(I4
tp357
g19
I00
S"\xe9&\x9b@\x17\r\x91>a\xc3'A\x81\x95\xdcA"
p358
tp359
bsg35
g25
(g19
S'\x00\x00\xc8A'
p360
tp361
Rp362
sg39
g341
sg40
g41
(F-0.5680000185966492
F2.808000087738037
tp363
Rp364
sg44
g41
(F0.29499998688697815
F0.7289999723434448
tp365
Rp366
sg47
g25
(g19
S'\x00\x00\xa8A'
p367
tp368
Rp369
sbsS'Be'
p370
g2
(g3
g4
Ntp371
Rp372
(dp373
g8
g9
(g10
(I0
tp374
g12
tp375
Rp376
(I1
(I4
tp377
g19
I00
S'a\xc3\xcb?\xc0[\x90?u\x02\n?A\xf13?'
p378
tp379
bsg24
g25
(g19
S'-\xb2\x1d='
p380
tp381
Rp382
sg12
g9
(g10
(I0
tp383
g12
tp384
Rp385
(I1
(I4
tp386
g19
I00
S' \x92.B\xd9_\xee?L\xf7\xceB\x83\xc0\n?'
p387
tp388
bsg35
g25
(g19
S'\x00\x00\x80@'
p389
tp390
Rp391
sg39
g370
sg40
g41
(F0.003000000026077032
F0.0010000000474974513
tp392
Rp393
sg44
g41
(F0.0
F0.0
tp394
Rp395
sg47
g25
(g19
S'\x00\x00\x80@'
p396
tp397
Rp398
sbsS'Rh+4'
p399
g2
(g3
g4
Ntp400
Rp401
(dp402
g8
g9
(g10
(I0
tp403
g12
tp404
Rp405
(I1
(I4
tp406
g19
I00
S'\x04\xd6\x96A\x8a\xb0_A\x8b7"@\x19\xe2\xb4\xc0'
p407
tp408
bsg24
g25
(g19
S'7\x894A'
p409
tp410
Rp411
sg12
g9
(g10
(I0
tp412
g12
tp413
Rp414
(I1
(I4
tp415
g19
I00
S"m\xc5B?\xc2\xfa\xf3@R\xa7\x9aA\xe7\x1d'\xbc"
p416
tp417
bsg35
g25
(g19
S'\x00\x004B'
p418
tp419
Rp420
sg39
g399
sg40
g41
(F-0.07699999958276749
F3.6050000190734863
tp421
Rp422
sg44
g41
(F-1.2869999408721924
F0.9190000295639038
tp423
Rp424
sg47
g25
(g19
S'\x00\x00$B'
p425
tp426
Rp427
sbsS'Rh+3'
p428
g2
(g3
g4
Ntp429
Rp430
(dp431
g8
g9
(g10
(I0
tp432
g12
tp433
Rp434
(I1
(I4
tp435
g19
I00
S'+\x07\x97A\xb0\x03bAB\xcfT@d]\xc6\xc0'
p436
tp437
bsg24
g25
(g19
S'\x82\xe2=A'
p438
tp439
Rp440
sg12
g9
(g10
(I0
tp441
g12
tp442
Rp443
(I1
(I4
tp444
g19
I00
S'\x05\xa6C?)\x05\xfb@V\xfd\xa9A\xfd\xbc)\xbc'
p445
tp446
bsg35
g25
(g19
S'\x00\x004B'
p447
tp448
Rp449
sg39
g428
sg40
g41
(F-0.07699999958276749
F3.6050000190734863
tp450
Rp451
sg44
g41
(F-1.2869999408721924
F0.9190000295639038
tp452
Rp453
sg47
g25
(g19
S'\x00\x00(B'
p454
tp455
Rp456
sbsS'Ba'
p457
g2
(g3
g4
Ntp458
Rp459
(dp460
g8
g9
(g10
(I0
tp461
g12
tp462
Rp463
(I1
(I4
tp464
g19
I00
S'U\xb0\xa2AB`\x9aA?5.A\xa0\x89,@'
p465
tp466
bsg24
g25
(g19
S'xz1@'
p467
tp468
Rp469
sg12
g9
(g10
(I0
tp470
g12
tp471
Rp472
(I1
(I4
tp473
g19
I00
S"\xf2\xd2M@q\x1b\x8d>\x8d\xa8\xa1A\xb63'C"
p474
tp475
bsg35
g25
(g19
S'\x00\x00`B'
p476
tp477
Rp478
sg39
g457
sg40
g41
(F-1.3339999914169312
F8.460000038146973
tp479
Rp480
sg44
g41
(F-0.6129999756813049
F2.2820000648498535
tp481
Rp482
sg47
g25
(g19
S'\x00\x00`B'
p483
tp484
Rp485
sbsS'Mn+2'
p486
g2
(g3
g4
Ntp487
Rp488
(dp489
g8
g9
(g10
(I0
tp490
g12
tp491
Rp492
(I1
(I4
tp493
g19
I00
S'\xc9\xe5,A\x81\x95\xeb@\x17\xb7a@@\xa4_>'
p494
tp495
bsg24
g25
(g19
S'\xec/\x8b?'
p496
tp497
Rp498
sg12
g9
(g10
(I0
tp499
g12
tp500
Rp501
(I1
(I4
tp502
g19
I00
S'|\xf2\xa8@;\xdf\xaf>\xee|eADK%B'
p503
tp504
bsg35
g25
(g19
S'\x00\x00\xc8A'
p505
tp506
Rp507
sg39
g486
sg40
g41
(F-0.5680000185966492
F2.808000087738037
tp508
Rp509
sg44
g41
(F0.29499998688697815
F0.7289999723434448
tp510
Rp511
sg47
g25
(g19
S'\x00\x00\xb8A'
p512
tp513
Rp514
sbsS'Mn+3'
p515
g2
(g3
g4
Ntp516
Rp517
(dp518
g8
g9
(g10
(I0
tp519
g12
tp520
Rp521
(I1
(I4
tp522
g19
I00
S'\xfb\x85\x1dA\xef\xe6\xfb@\n.d@\x9a\xb0\xa5>'
p523
tp524
bsg24
g25
(g19
S'\xf6\xb6\xc9>'
p525
tp526
Rp527
sg12
g9
(g10
(I0
tp528
g12
tp529
Rp530
(I1
(I4
tp531
g19
I00
S'\x03`\x9d@\xae\xba\x96>\xd7\x12-AY\x06\xc1A'
p532
tp533
bsg35
g25
(g19
S'\x00\x00\xc8A'
p534
tp535
Rp536
sg39
g515
sg40
g41
(F-0.5680000185966492
F2.808000087738037
tp537
Rp538
sg44
g41
(F0.29499998688697815
F0.7289999723434448
tp539
Rp540
sg47
g25
(g19
S'\x00\x00\xb0A'
p541
tp542
Rp543
sbsS'Sr+2'
p544
g2
(g3
g4
Ntp545
Rp546
(dp547
g8
g9
(g10
(I0
tp548
g12
tp549
Rp550
(I1
(I4
tp551
g19
I00
S'\xff\xb2\x90Aa2\x02A\x83/$@\xa2\xc5\x08\xc2'
p552
tp553
bsg24
g25
(g19
S')\x9c%B'
p554
tp555
Rp556
sg12
g9
(g10
(I0
tp557
g12
tp558
Rp559
(I1
(I4
tp560
g19
I00
S'B\xcf\xbe?\x0b$KAS\x85\xc4Ae\x19b\xbc'
p561
tp562
bsg35
g25
(g19
S'\x00\x00\x18B'
p563
tp564
Rp565
sg39
g544
sg40
g41
(F-0.4650000035762787
F1.8200000524520874
tp566
Rp567
sg44
g41
(F-1.656999945640564
F3.2639999389648438
tp568
Rp569
sg47
g25
(g19
S'\x00\x00\x10B'
p570
tp571
Rp572
sbsS'Mo+6'
p573
g2
(g3
g4
Ntp574
Rp575
(dp576
g8
g9
(g10
(I0
tp577
g12
tp578
Rp579
(I1
(I4
tp580
g19
I00
S'\xc8\x18\x8fA\xcd\xcc2An\x86\xd2@\x00\x00\x00\x00'
p581
tp582
bsg24
g25
(g19
S'\x1b\x9c\xb0>'
p583
tp584
Rp585
sg12
g9
(g10
(I0
tp586
g12
tp587
Rp588
(I1
(I4
tp589
g19
I00
S'\xb4\xab\x84?\x94\xb0\x07A4-q=\x00\x00\x00\x00'
p590
tp591
bsg35
g25
(g19
S'\x00\x00(B'
p592
tp593
Rp594
sg39
g573
sg40
g41
(F-0.19099999964237213
F2.734999895095825
tp595
Rp596
sg44
g41
(F-1.8250000476837158
F0.6880000233650208
tp597
Rp598
sg47
g25
(g19
S'\x00\x00\x10B'
p599
tp600
Rp601
sbsS'Au+3'
p602
g2
(g3
g4
Ntp603
Rp604
(dp605
g8
g9
(g10
(I0
tp606
g12
tp607
Rp608
(I1
(I4
tp609
g19
I00
S'@\x82\xf5A$9\x87AJ{LA\xd7\xc0\xd0@'
p610
tp611
bsg24
g25
(g19
S'~\x8c\x11A'
p612
tp613
Rp614
sg12
g9
(g10
(I0
tp615
g12
tp616
Rp617
(I1
(I4
tp618
g19
I00
S'\xaf%\x9c?\xe0\x84\xda@\xcf\xf9Y>\xa2E\x95A'
p619
tp620
bsg35
g25
(g19
S'\x00\x00\x9eB'
p621
tp622
Rp623
sg39
g602
sg40
g41
(F-5.0960001945495605
F7.296999931335449
tp624
Rp625
sg44
g41
(F-2.687999963760376
F8.79800033569336
tp626
Rp627
sg47
g25
(g19
S'\x00\x00\x98B'
p628
tp629
Rp630
sbsS'H-1'
p631
g2
(g3
g4
Ntp632
Rp633
(dp634
g8
g9
(g10
(I0
tp635
g12
tp636
Rp637
(I1
(I4
tp638
g19
I00
S'\x1c\xcde?6\xcc\x10?\xb4\xe5\xd4>\x8a\x8f\xef='
p639
tp640
bsg24
g25
(g19
S'\xc5\x90\x1c;'
p641
tp642
Rp643
sg12
g9
(g10
(I0
tp644
g12
tp645
Rp646
(I1
(I4
tp647
g19
I00
S'\x15\x8cTB\xf4\xfdrAt\x93:C4Kd@'
p648
tp649
bsg35
g25
(g19
S'\x00\x00\x80?'
p650
tp651
Rp652
sg39
g631
sg40
g41
(F0.0
F0.0
tp653
Rp654
sg44
g41
(F0.0
F0.0
tp655
Rp656
sg47
g25
(g19
S'\x00\x00\x00@'
p657
tp658
Rp659
sbsS'Mo+3'
p660
g2
(g3
g4
Ntp661
Rp662
(dp663
g8
g9
(g10
(I0
tp664
g12
tp665
Rp666
(I1
(I4
tp667
g19
I00
S'\xcaT\xa9A\x15\x9d\x91Av\xe0;A\x03\xcf\x13@'
p668
tp669
bsg24
g25
(g19
S'j\xbcf\xc1'
p670
tp671
Rp672
sg12
g9
(g10
(I0
tp673
g12
tp674
Rp675
(I1
(I4
tp676
g19
I00
S'\xe0fq<3\xe1\x83?\xdf\x95\x18A\xac\x0b\xd5A'
p677
tp678
bsg35
g25
(g19
S'\x00\x00(B'
p679
tp680
Rp681
sg39
g660
sg40
g41
(F-0.19099999964237213
F2.734999895095825
tp682
Rp683
sg44
g41
(F-1.8250000476837158
F0.6880000233650208
tp684
Rp685
sg47
g25
(g19
S'\x00\x00\x1cB'
p686
tp687
Rp688
sbsS'Bk'
p689
g2
(g3
g4
Ntp690
Rp691
(dp692
g8
g9
(g10
(I0
tp693
g12
tp694
Rp695
(I1
(I4
tp696
g19
I00
S'\x04\'\x13BU0\xc6A\x9c"\x8fAms\x87@'
p697
tp698
bsg24
g25
(g19
S'\nhTA'
p699
tp700
Rp701
sg12
g9
(g10
(I0
tp702
g12
tp703
Rp704
(I1
(I4
tp705
g19
I00
S'\xd5\xeb\xe6>\xc7\xf4B@HPNA\x89\x01\xacB'
p706
tp707
bsg35
g25
(g19
S'\x00\x00\xc2B'
p708
tp709
Rp710
sg39
g689
sg40
g41
(F-6.498000144958496
F16.316999435424805
tp711
Rp712
sg44
g41
(F-7.989999771118164
F4.9079999923706055
tp713
Rp714
sg47
g25
(g19
S'\x00\x00\xc2B'
p715
tp716
Rp717
sbsS'O-1'
p718
g2
(g3
g4
Ntp719
Rp720
(dp721
g8
g9
(g10
(I0
tp722
g12
tp723
Rp724
(I1
(I4
tp725
g19
I00
S'\x96!\x86@]\xe1\xd1?\xe3k\xc3?\xbct\xa2\xc1'
p726
tp727
bsg24
g25
(g19
S'\x94\x87\xafA'
p728
tp729
Rp730
sg12
g9
(g10
(I0
tp731
g12
tp732
Rp733
(I1
(I4
tp734
g19
I00
S'\x80\xb7MA\xf9\x83\x85@T\x12<B\x07\x08f\xbc'
p735
tp736
bsg35
g25
(g19
S'\x00\x00\x00A'
p737
tp738
Rp739
sg39
g718
sg40
g41
(F0.04699999839067459
F0.03200000151991844
tp740
Rp741
sg44
g41
(F0.00800000037997961
F0.006000000052154064
tp742
Rp743
sg47
g25
(g19
S'\x00\x00\x10A'
p744
tp745
Rp746
sbsS'Br'
p747
g2
(g3
g4
Ntp748
Rp749
(dp750
g8
g9
(g10
(I0
tp751
g12
tp752
Rp753
(I1
(I4
tp754
g19
I00
S'cn\x89A\xac\x8b\xa7@\nh\xb4@\xe1\x0b\x7f@'
p755
tp756
bsg24
g25
(g19
S'0*=@'
p757
tp758
Rp759
sg12
g9
(g10
(I0
tp760
g12
tp761
Rp762
(I1
(I4
tp763
g19
I00
S'\xf7\x06\x0b@\x05\xa3\x84A\xaf\x94\x85>0\xbb%B'
p764
tp765
bsg35
g25
(g19
S'\x00\x00\x0cB'
p766
tp767
Rp768
sg39
g747
sg40
g41
(F-0.7670000195503235
F1.2829999923706055
tp769
Rp770
sg44
g41
(F-0.37400001287460327
F2.4560000896453857
tp771
Rp772
sg47
g25
(g19
S'\x00\x00\x0cB'
p773
tp774
Rp775
sbsS'Mg+2'
p776
g2
(g3
g4
Ntp777
Rp778
(dp779
g8
g9
(g10
(I0
tp780
g12
tp781
Rp782
(I1
(I4
tp783
g19
I00
S'W\xec_@\x84\x9eu@\x03\t\xaa?\xf0\x85Y?'
p784
tp785
bsg24
g25
(g19
S'>y\xf8>'
p786
tp787
Rp788
sg12
g9
(g10
(I0
tp789
g12
tp790
Rp791
(I1
(I4
tp792
g19
I00
S'\xf5\xb9\n@h"\x98@\xa4p=>\xf2A"A'
p793
tp794
bsg35
g25
(g19
S'\x00\x00@A'
p795
tp796
Rp797
sg39
g776
sg40
g41
(F0.16500000655651093
F0.1770000010728836
tp798
Rp799
sg44
g41
(F0.041999999433755875
F0.035999998450279236
tp800
Rp801
sg47
g25
(g19
S'\x00\x00 A'
p802
tp803
Rp804
sbsS'Ce+3'
p805
g2
(g3
g4
Ntp806
Rp807
(dp808
g8
g9
(g10
(I0
tp809
g12
tp810
Rp811
(I1
(I4
tp812
g19
I00
S'\xc6m\xa6A\xd5x\x9cA\x8b\xfd>A\xac\xc4\x1c?'
p813
tp814
bsg24
g25
(g19
S'\xb1\xc4\x05@'
p815
tp816
Rp817
sg12
g9
(g10
(I0
tp818
g12
tp819
Rp820
(I1
(I4
tp821
g19
I00
S'\xe5\xb81@\xd2\x18m>\x8fS\x84AC\xad,B'
p822
tp823
bsg35
g25
(g19
S'\x00\x00hB'
p824
tp825
Rp826
sg39
g805
sg40
g41
(F-2.1700000762939453
F9.64799976348877
tp827
Rp828
sg44
g41
(F-0.5640000104904175
F2.631999969482422
tp829
Rp830
sg47
g25
(g19
S'\x00\x00\\B'
p831
tp832
Rp833
sbsS'Ra+2'
p834
g2
(g3
g4
Ntp835
Rp836
(dp837
g8
g9
(g10
(I0
tp838
g12
tp839
Rp840
(I1
(I4
tp841
g19
I00
S')\xdc\x0cB)\\\xadA\xbd:\xfd@1\xd3\xf4@'
p842
tp843
bsg24
g25
(g19
S'\x8a\xb0XA'
p844
tp845
Rp846
sg12
g9
(g10
(I0
tp847
g12
tp848
Rp849
(I1
(I4
tp850
g19
I00
S'Q\xdb\x1a?\xa7\xe8d@\xb2\x9dIA\xb1\xbf\xeeA'
p851
tp852
bsg35
g25
(g19
S'\x00\x00\xb0B'
p853
tp854
Rp855
sg39
g834
sg40
g41
(F-4.8979997634887695
F11.295999526977539
tp856
Rp857
sg44
g41
(F-7.619999885559082
F8.104999542236328
tp858
Rp859
sg47
g25
(g19
S'\x00\x00\xacB'
p860
tp861
Rp862
sbsS'Nb'
p863
g2
(g3
g4
Ntp864
Rp865
(dp866
g8
g9
(g10
(I0
tp867
g12
tp868
Rp869
(I1
(I4
tp870
g19
I00
S'\xe2\xe9\x8cA\xfb:@A\xacV\x81@5$b@'
p871
tp872
bsg24
g25
(g19
S'\xd4`p@'
p873
tp874
Rp875
sg12
g9
(g10
(I0
tp876
g12
tp877
Rp878
(I1
(I4
tp879
g19
I00
S'\xaf%\x98?\x89A<A)\xb3Q>f\x97\x8bB'
p880
tp881
bsg35
g25
(g19
S'\x00\x00$B'
p882
tp883
Rp884
sg39
g863
sg40
g41
(F-0.24799999594688416
F2.4820001125335693
tp885
Rp886
sg44
g41
(F-2.197000026702881
F0.6209999918937683
tp887
Rp888
sg47
g25
(g19
S'\x00\x00$B'
p889
tp890
Rp891
sbsS'Th+4'
p892
g2
(g3
g4
Ntp893
Rp894
(dp895
g8
g9
(g10
(I0
tp896
g12
tp897
Rp898
(I1
(I4
tp899
g19
I00
S'\x1eg\x0cB\xce\x88\xb3A\x92\x91\x1cA\rl\xa9@'
p900
tp901
bsg24
g25
(g19
S'\x18\x04VA'
p902
tp903
Rp904
sg12
g9
(g10
(I0
tp905
g12
tp906
Rp907
(I1
(I4
tp908
g19
I00
S'\x05\x18\x0e?\xc1\xadO@%uWA\\\xa0\xbfA'
p909
tp910
bsg35
g25
(g19
S'\x00\x00\xb4B'
p911
tp912
Rp913
sg39
g892
sg40
g41
(F-5.091000080108643
F12.329999923706055
tp914
Rp915
sg44
g41
(F-8.126999855041504
F8.869999885559082
tp916
Rp917
sg47
g25
(g19
S'\x00\x00\xacB'
p918
tp919
Rp920
sbsS'Al+3'
p921
g2
(g3
g4
Ntp922
Rp923
(dp924
g8
g9
(g10
(I0
tp925
g12
tp926
Rp927
(I1
(I4
tp928
g19
I00
S'W\x95\x85@p\xceX@\x98\xfa\x99?\xfd3\x07?'
p929
tp930
bsg24
g25
(g19
S'\xed\xef4?'
p931
tp932
Rp933
sg12
g9
(g10
(I0
tp934
g12
tp935
Rp936
(I1
(I4
tp937
g19
I00
S'\xa0\x15\xf8?/\xa8\x84@:>j>X\x90\x04A'
p938
tp939
bsg35
g25
(g19
S'\x00\x00PA'
p940
tp941
Rp942
sg39
g921
sg40
g41
(F0.20399999618530273
F0.2460000067949295
tp943
Rp944
sg44
g41
(F0.0560000017285347
F0.052000001072883606
tp945
Rp946
sg47
g25
(g19
S'\x00\x00 A'
p947
tp948
Rp949
sbsS'H'
p950
g2
(g3
g4
Ntp951
Rp952
(dp953
g8
g9
(g10
(I0
tp954
g12
tp955
Rp956
(I1
(I4
tp957
g19
I00
S'(\x0fK?\xde\x93G>\x00\x00\x00\x00\x00\x00\x00\x00'
p958
tp959
bsg24
g25
(g19
S'\x00\x00\x00\x00'
p960
tp961
Rp962
sg12
g9
(g10
(I0
tp963
g12
tp964
Rp965
(I1
(I4
tp966
g19
I00
S'\xc1\xb9\xc1A8\xf8\x06@\x00\x00\x00\x00\x00\x00\x00\x00'
p967
tp968
bsg35
g25
(g19
S'\x00\x00\x80?'
p969
tp970
Rp971
sg39
g950
sg40
g41
(F0.0
F0.0
tp972
Rp973
sg44
g41
(F0.0
F0.0
tp974
Rp975
sg47
g25
(g19
S'\x00\x00\x80?'
p976
tp977
Rp978
sbsS'Ti+2'
p979
g2
(g3
g4
Ntp980
Rp981
(dp982
g8
g9
(g10
(I0
tp983
g12
tp984
Rp985
(I1
(I4
tp986
g19
I00
S'\xe3\xd3\x11AK\xe5\xf3@\r\xe0\x11@d\x04\xb4='
p987
tp988
bsg24
g25
(g19
S'\xf3\xabe?'
p989
tp990
Rp991
sg12
g9
(g10
(I0
tp992
g12
tp993
Rp994
(I1
(I4
tp995
g19
I00
S'\x11\xc7\xf0@\x95H\xea>\xefI\x9cA\x8a\x9fvB'
p996
tp997
bsg35
g25
(g19
S'\x00\x00\xb0A'
p998
tp999
Rp1000
sg39
g979
sg40
g41
(F0.1889999955892563
F1.8070000410079956
tp1001
Rp1002
sg44
g41
(F0.24799999594688416
F0.44600000977516174
tp1003
Rp1004
sg47
g25
(g19
S'\x00\x00\xa0A'
p1005
tp1006
Rp1007
sbsS'Ti+3'
p1008
g2
(g3
g4
Ntp1009
Rp1010
(dp1011
g8
g9
(g10
(I0
tp1012
g12
tp1013
Rp1014
(I1
(I4
tp1015
g19
I00
S'\r\xe0\x8dA\x81\xcf\x0bA\x9b8\xa8@x\xee\xf5?'
p1016
tp1017
bsg24
g25
(g19
S'\x98nj\xc1'
p1018
tp1019
Rp1020
sg12
g9
(g10
(I0
tp1021
g12
tp1022
Rp1023
(I1
(I4
tp1024
g19
I00
S'\x96\xe7a>V\x82\xe1@#g!\xbe\xf9\xa0\x7fA'
p1025
tp1026
bsg35
g25
(g19
S'\x00\x00\xb0A'
p1027
tp1028
Rp1029
sg39
g1008
sg40
g41
(F0.1889999955892563
F1.8070000410079956
tp1030
Rp1031
sg44
g41
(F0.24799999594688416
F0.44600000977516174
tp1032
Rp1033
sg47
g25
(g19
S'\x00\x00\x98A'
p1034
tp1035
Rp1036
sbsS'Ti+4'
p1037
g2
(g3
g4
Ntp1038
Rp1039
(dp1040
g8
g9
(g10
(I0
tp1041
g12
tp1042
Rp1043
(I1
(I4
tp1044
g19
I00
S'Y\x17\x9cAt\xc1\x03A\xb6\xdb\x00@\x93\xa9\xc2?'
p1045
tp1046
bsg24
g25
(g19
S'\xe1zT\xc1'
p1047
tp1048
Rp1049
sg12
g9
(g10
(I0
tp1050
g12
tp1051
Rp1052
(I1
(I4
tp1053
g19
I00
S'\xab#7>\x1dr\xd5@\x99\xd3\x95\xbet$OA'
p1054
tp1055
bsg35
g25
(g19
S'\x00\x00\xb0A'
p1056
tp1057
Rp1058
sg39
g1037
sg40
g41
(F0.1889999955892563
F1.8070000410079956
tp1059
Rp1060
sg44
g41
(F0.24799999594688416
F0.44600000977516174
tp1061
Rp1062
sg47
g25
(g19
S'\x00\x00\x90A'
p1063
tp1064
Rp1065
sbsS'V+5'
p1066
g2
(g3
g4
Ntp1067
Rp1068
(dp1069
g8
g9
(g10
(I0
tp1070
g12
tp1071
Rp1072
(I1
(I4
tp1073
g19
I00
S'\xea\x04{A\xf6E\x02A\xcb\xf8\x01@L7\x19\xc1'
p1074
tp1075
bsg24
g25
(g19
S'/n\xdb?'
p1076
tp1077
Rp1078
sg12
g9
(g10
(I0
tp1079
g12
tp1080
Rp1081
(I1
(I4
tp1082
g19
I00
S'$\xd3-?\xdc\xd7\xac@\x82\x90\x1fA@\xc2p?'
p1083
tp1084
bsg35
g25
(g19
S'\x00\x00\xb8A'
p1085
tp1086
Rp1087
sg39
g1066
sg40
g41
(F0.03500000014901161
F2.109999895095825
tp1088
Rp1089
sg44
g41
(F0.2669999897480011
F0.5299999713897705
tp1090
Rp1091
sg47
g25
(g19
S'\x00\x00\x90A'
p1092
tp1093
Rp1094
sbsS'Li+1'
p1095
g2
(g3
g4
Ntp1096
Rp1097
(dp1098
g8
g9
(g10
(I0
tp1099
g12
tp1100
Rp1101
(I1
(I4
tp1102
g19
I00
S'|a2?\xcc\xeeI?\xfb\xcb\xae>\x1b\r >'
p1103
tp1104
bsg24
g25
(g19
S'p\xce\x88<'
p1105
tp1106
Rp1107
sg12
g9
(g10
(I0
tp1108
g12
tp1109
Rp1110
(I1
(I4
tp1111
g19
I00
S'Z\xf5\x93@aT\xfa?\x8a\xb0!?Y\x86!A'
p1112
tp1113
bsg35
g25
(g19
S'\x00\x00@@'
p1114
tp1115
Rp1116
sg39
g1095
sg40
g41
(F0.0010000000474974513
F0.0
tp1117
Rp1118
sg44
g41
(F0.0
F0.0
tp1119
Rp1120
sg47
g25
(g19
S'\x00\x00\x00@'
p1121
tp1122
Rp1123
sbsS'Er+3'
p1124
g2
(g3
g4
Ntp1125
Rp1126
(dp1127
g8
g9
(g10
(I0
tp1128
g12
tp1129
Rp1130
(I1
(I4
tp1131
g19
I00
S'\xa8\xc6\xd5A\xca2\x9eA\xdchBA\xb0\x8f\xa5@'
p1132
tp1133
bsg24
g25
(g19
S'n\x8b\x96?'
p1134
tp1135
Rp1136
sg12
g9
(g10
(I0
tp1137
g12
tp1138
Rp1139
(I1
(I4
tp1140
g19
I00
S'\x10]\xec?\xc0\x95\x0c>\xc6\xcb\x05A\xe0-\x8fA'
p1141
tp1142
bsg35
g25
(g19
S'\x00\x00\x88B'
p1143
tp1144
Rp1145
sg39
g1124
sg40
g41
(F-9.732999801635742
F3.937000036239624
tp1146
Rp1147
sg44
g41
(F-0.7229999899864197
F4.958000183105469
tp1148
Rp1149
sg47
g25
(g19
S'\x00\x00\x82B'
p1150
tp1151
Rp1152
sbsS'Zn+2'
p1153
g2
(g3
g4
Ntp1154
Rp1155
(dp1156
g8
g9
(g10
(I0
tp1157
g12
tp1158
Rp1159
(I1
(I4
tp1160
g19
I00
S'\xe7\x8c?A\xc0[\xec@\x07\xf0\xce@\x98n\xb2?'
p1161
tp1162
bsg24
g25
(g19
S'\xf5\xdbG?'
p1163
tp1164
Rp1165
sg12
g9
(g10
(I0
tp1166
g12
tp1167
Rp1168
(I1
(I4
tp1169
g19
I00
S'\x87\xa7?@r\xf9O>\xa9\xa4\xe2@\xc6\xcb\x90A'
p1170
tp1171
bsg35
g25
(g19
S'\x00\x00\xf0A'
p1172
tp1173
Rp1174
sg39
g1153
sg40
g41
(F-1.6119999885559082
F0.6779999732971191
tp1175
Rp1176
sg44
g41
(F0.22200000286102295
F1.430999994277954
tp1177
Rp1178
sg47
g25
(g19
S'\x00\x00\xe0A'
p1179
tp1180
Rp1181
sbsS'U+6'
p1182
g2
(g3
g4
Ntp1183
Rp1184
(dp1185
g8
g9
(g10
(I0
tp1186
g12
tp1187
Rp1188
(I1
(I4
tp1189
g19
I00
S'Rg\x0bB4\x11\xb6A\x8d(`A\x08w\x9b?'
p1190
tp1191
bsg24
g25
(g19
S'\xfc\xa9RA'
p1192
tp1193
Rp1194
sg12
g9
(g10
(I0
tp1195
g12
tp1196
Rp1197
(I1
(I4
tp1198
g19
I00
S'\xee\xcf\x01?\xad\xfa8@\xc3\xd3RA\x15\x9d\xc9A'
p1199
tp1200
bsg35
g25
(g19
S'\x00\x00\xb8B'
p1201
tp1202
Rp1203
sg39
g1182
sg40
g41
(F-5.359000205993652
F13.409000396728516
tp1204
Rp1205
sg44
g41
(F-10.67300033569336
F9.653999328613281
tp1206
Rp1207
sg47
g25
(g19
S'\x00\x00\xacB'
p1208
tp1209
Rp1210
sbsS'Os'
p1211
g2
(g3
g4
Ntp1212
Rp1213
(dp1214
g8
g9
(g10
(I0
tp1215
g12
tp1216
Rp1217
(I1
(I4
tp1218
g19
I00
S'\xe4\x83\xe1Ap=\x81AT\xe3nA\xe4\xa0\xb5@'
p1219
tp1220
bsg24
g25
(g19
S'\x0c\x020A'
p1221
tp1222
Rp1223
sg12
g9
(g10
(I0
tp1224
g12
tp1225
Rp1226
(I1
(I4
tp1227
g19
I00
S'\x0e\x84\xd0?\xf3\xab\x0fA%\xec\xc3>\xa7\xa8@B'
p1228
tp1229
bsg35
g25
(g19
S'\x00\x00\x98B'
p1230
tp1231
Rp1232
sg39
g1211
sg40
g41
(F-5.580999851226807
F6.2210001945495605
tp1233
Rp1234
sg44
g41
(F-1.815999984741211
F7.605000019073486
tp1235
Rp1236
sg47
g25
(g19
S'\x00\x00\x98B'
p1237
tp1238
Rp1239
sbsS'Si+4'
p1240
g2
(g3
g4
Ntp1241
Rp1242
(dp1243
g8
g9
(g10
(I0
tp1244
g12
tp1245
Rp1246
(I1
(I4
tp1247
g19
I00
S'\xc3\r\x8e@S\x05M@\\\xe6\x98?lC\xd5>'
p1248
tp1249
bsg24
g25
(g19
S'R\r??'
p1250
tp1251
Rp1252
sg12
g9
(g10
(I0
tp1253
g12
tp1254
Rp1255
(I1
(I4
tp1256
g19
I00
S'>"\xd2?&\x01\\@\xbf\x0e\\>\xb3\xea\xd4@'
p1257
tp1258
bsg35
g25
(g19
S'\x00\x00`A'
p1259
tp1260
Rp1261
sg39
g1240
sg40
g41
(F0.24400000274181366
F0.33000001311302185
tp1262
Rp1263
sg44
g41
(F0.07199999690055847
F0.07100000232458115
tp1264
Rp1265
sg47
g25
(g19
S'\x00\x00 A'
p1266
tp1267
Rp1268
sbsS'Os+4'
p1269
g2
(g3
g4
Ntp1270
Rp1271
(dp1272
g8
g9
(g10
(I0
tp1273
g12
tp1274
Rp1275
(I1
(I4
tp1276
g19
I00
S'\x1cZ\xf3A\x1d8tA\xcc\xeekA\xa5,\xa2@'
p1277
tp1278
bsg24
g25
(g19
S'\xf2\xef\xcf@'
p1279
tp1280
Rp1281
sg12
g9
(g10
(I0
tp1282
g12
tp1283
Rp1284
(I1
(I4
tp1285
g19
I00
S"0\x81\xaf?\x1e\x1b\xdb@\xd4')>%\x06\x90A"
p1286
tp1287
bsg35
g25
(g19
S'\x00\x00\x98B'
p1288
tp1289
Rp1290
sg39
g1269
sg40
g41
(F-5.580999851226807
F6.2210001945495605
tp1291
Rp1292
sg44
g41
(F-1.815999984741211
F7.605000019073486
tp1293
Rp1294
sg47
g25
(g19
S'\x00\x00\x90B'
p1295
tp1296
Rp1297
sbsS'Cm'
p1298
g2
(g3
g4
Ntp1299
Rp1300
(dp1301
g8
g9
(g10
(I0
tp1302
g12
tp1303
Rp1304
(I1
(I4
tp1305
g19
I00
S"_\x98\x12B\xdcF\xc3A'1\x8bA\xcc\xee\x86@"
p1306
tp1307
bsg24
g25
(g19
S'\x84\x9eTA'
p1308
tp1309
Rp1310
sg12
g9
(g10
(I0
tp1311
g12
tp1312
Rp1313
(I1
(I4
tp1314
g19
I00
S'\xaa(\xee>\x12\xc2E@\x1f\xf4VA\x80\xf7\xb0B'
p1315
tp1316
bsg35
g25
(g19
S'\x00\x00\xc0B'
p1317
tp1318
Rp1319
sg39
g1298
sg40
g41
(F-6.176000118255615
F15.633999824523926
tp1320
Rp1321
sg44
g41
(F-8.416000366210938
F4.697000026702881
tp1322
Rp1323
sg47
g25
(g19
S'\x00\x00\xc0B'
p1324
tp1325
Rp1326
sbsS'Re'
p1327
g2
(g3
g4
Ntp1328
Rp1329
(dp1330
g8
g9
(g10
(I0
tp1331
g12
tp1332
Rp1333
(I1
(I4
tp1334
g19
I00
S'\xc8\x18\xe6A\x9d\x80{A\x04\xe7hA\xbc"\xae@'
p1335
tp1336
bsg24
g25
(g19
S"P\x8d'A"
p1337
tp1338
Rp1339
sg12
g9
(g10
(I0
tp1340
g12
tp1341
Rp1342
(I1
(I4
tp1343
g19
I00
S'&\x01\xd6?\xf0y\x11A\xbct\xb3>*XPB'
p1344
tp1345
bsg35
g25
(g19
S'\x00\x00\x96B'
p1346
tp1347
Rp1348
sg39
g1327
sg40
g41
(F-5.789999961853027
F5.890999794006348
tp1349
Rp1350
sg44
g41
(F-1.5980000495910645
F7.23199987411499
tp1351
Rp1352
sg47
g25
(g19
S'\x00\x00\x96B'
p1353
tp1354
Rp1355
sbsS'Nb+5'
p1356
g2
(g3
g4
Ntp1357
Rp1358
(dp1359
g8
g9
(g10
(I0
tp1360
g12
tp1361
Rp1362
(I1
(I4
tp1363
g19
I00
S'\x95T\x8fA\x9awUA\xb4\xc8,A\xe2\x01\xad>'
p1364
tp1365
bsg24
g25
(g19
S'\xbc\x96\xcc\xc0'
p1366
tp1367
Rp1368
sg12
g9
(g10
(I0
tp1369
g12
tp1370
Rp1371
(I1
(I4
tp1372
g19
I00
S'N\xee\x8f?"\xc6\xeb<Q\x83\x14AK\xc8\xcdA'
p1373
tp1374
bsg35
g25
(g19
S'\x00\x00$B'
p1375
tp1376
Rp1377
sg39
g1356
sg40
g41
(F-0.24799999594688416
F2.4820001125335693
tp1378
Rp1379
sg44
g41
(F-2.197000026702881
F0.6209999918937683
tp1380
Rp1381
sg47
g25
(g19
S'\x00\x00\x10B'
p1382
tp1383
Rp1384
sbsS'Dy+3'
p1385
g2
(g3
g4
Ntp1386
Rp1387
(dp1388
g8
g9
(g10
(I0
tp1389
g12
tp1390
Rp1391
(I1
(I4
tp1392
g19
I00
S'\xe5P\xccA\xefI\xa2A\xff\xb2?A\xfb\x05\x90@'
p1393
tp1394
bsg24
g25
(g19
S'\x86\x8f0?'
p1395
tp1396
Rp1397
sg12
g9
(g10
(I0
tp1398
g12
tp1399
Rp1400
(I1
(I4
tp1401
g19
I00
S'\xbf}\xfd?A\xd3\x12>t\x98\x15A\xe3\xa5\x9cA'
p1402
tp1403
bsg35
g25
(g19
S'\x00\x00\x84B'
p1404
tp1405
Rp1406
sg39
g1385
sg40
g41
(F-10.42300033569336
F9.748000144958496
tp1407
Rp1408
sg44
g41
(F-0.6190000176429749
F4.409999847412109
tp1409
Rp1410
sg47
g25
(g19
S'\x00\x00|B'
p1411
tp1412
Rp1413
sbsS'Nb+3'
p1414
g2
(g3
g4
Ntp1415
Rp1416
(dp1417
g8
g9
(g10
(I0
tp1418
g12
tp1419
Rp1420
(I1
(I4
tp1421
g19
I00
S'\xb2\x0c\x9fA\xbc\x85\x90A\x80H0A6<\xf9?'
p1422
tp1423
bsg24
g25
(g19
S'\x8d\x97N\xc1'
p1424
tp1425
Rp1426
sg12
g9
(g10
(I0
tp1427
g12
tp1428
Rp1429
(I1
(I4
tp1430
g19
I00
S'\xe4\x14\x9d<\xc8\x07\x91?\xf6\x97"A\x11\xb6\xe2A'
p1431
tp1432
bsg35
g25
(g19
S'\x00\x00$B'
p1433
tp1434
Rp1435
sg39
g1414
sg40
g41
(F-0.24799999594688416
F2.4820001125335693
tp1436
Rp1437
sg44
g41
(F-2.197000026702881
F0.6209999918937683
tp1438
Rp1439
sg47
g25
(g19
S'\x00\x00\x18B'
p1440
tp1441
Rp1442
sbsS'Hg'
p1443
g2
(g3
g4
Ntp1444
Rp1445
(dp1446
g8
g9
(g10
(I0
tp1447
g12
tp1448
Rp1449
(I1
(I4
tp1450
g19
I00
S'|r\xa5AgU\x98A\x8fB\xadA\x94\xf6\xbe@'
p1451
tp1452
bsg24
g25
(g19
S'\x0e\xbeIA'
p1453
tp1454
Rp1455
sg12
g9
(g10
(I0
tp1456
g12
tp1457
Rp1458
(I1
(I4
tp1459
g19
I00
S'\x1f\x85\x0b?\xa5,\x07A\xcaT\xc9?dL\x19B'
p1460
tp1461
bsg35
g25
(g19
S'\x00\x00\xa0B'
p1462
tp1463
Rp1464
sg39
g1443
sg40
g41
(F-4.989999771118164
F7.685999870300293
tp1465
Rp1466
sg44
g41
(F-3.0840001106262207
F9.222999572753906
tp1467
Rp1468
sg47
g25
(g19
S'\x00\x00\xa0B'
p1469
tp1470
Rp1471
sbsS'Ge'
p1472
g2
(g3
g4
Ntp1473
Rp1474
(dp1475
g8
g9
(g10
(I0
tp1476
g12
tp1477
Rp1478
(I1
(I4
tp1479
g19
I00
S'\x1e\xa7\x80A\x8b\xfd\xcb@6<m@F\xb6k@'
p1480
tp1481
bsg24
g25
(g19
S'8g\x08@'
p1482
tp1483
Rp1484
sg12
g9
(g10
(I0
tp1485
g12
tp1486
Rp1487
(I1
(I4
tp1488
g19
I00
S'%u6@\xb7\xd1\x80>\x18&7A\xcd\x0c[B'
p1489
tp1490
bsg35
g25
(g19
S'\x00\x00\x00B'
p1491
tp1492
Rp1493
sg39
g1472
sg40
g41
(F-1.1629999876022339
F0.8859999775886536
tp1494
Rp1495
sg44
g41
(F0.08100000023841858
F1.8009999990463257
tp1496
Rp1497
sg47
g25
(g19
S'\x00\x00\x00B'
p1498
tp1499
Rp1500
sbsS'Cl-1'
p1501
g2
(g3
g4
Ntp1502
Rp1503
(dp1504
g8
g9
(g10
(I0
tp1505
g12
tp1506
Rp1507
(I1
(I4
tp1508
g19
I00
S'\xfeT\x92A6\xab\xe6@\x12\x14\xd1@\x9f\xab\x15@'
p1509
tp1510
bsg24
g25
(g19
S'%\x06\x83\xc1'
p1511
tp1512
Rp1513
sg12
g9
(g10
(I0
tp1514
g12
tp1515
Rp1516
(I1
(I4
tp1517
g19
I00
S'\xd0D\xd8;D\xfa\x95?\xd6V\x9cA^\xcbqB'
p1518
tp1519
bsg35
g25
(g19
S'\x00\x00\x88A'
p1520
tp1521
Rp1522
sg39
g1501
sg40
g41
(F0.3479999899864197
F0.7020000219345093
tp1523
Rp1524
sg44
g41
(F0.13199999928474426
F0.1589999943971634
tp1525
Rp1526
sg47
g25
(g19
S'\x00\x00\x90A'
p1527
tp1528
Rp1529
sbsS'Ga'
p1530
g2
(g3
g4
Ntp1531
Rp1532
(dp1533
g8
g9
(g10
(I0
tp1534
g12
tp1535
Rp1536
(I1
(I4
tp1537
g19
I00
S'3\xc4sAQk\xd6@\xbf}\x8b@S\x96=@'
p1538
tp1539
bsg24
g25
(g19
S'\xea\x04\xdc?'
p1540
tp1541
Rp1542
sg12
g9
(g10
(I0
tp1543
g12
tp1544
Rp1545
(I1
(I4
tp1546
g19
I00
S'\x17HD@"\xfdv>\xee|,Al\xa7uB'
p1547
tp1548
bsg35
g25
(g19
S'\x00\x00\xf8A'
p1549
tp1550
Rp1551
sg39
g1530
sg40
g41
(F-1.3539999723434448
F0.7770000100135803
tp1552
Rp1553
sg44
g41
(F0.16300000250339508
F1.6089999675750732
tp1554
Rp1555
sg47
g25
(g19
S'\x00\x00\xf8A'
p1556
tp1557
Rp1558
sbsS'Tm+3'
p1559
g2
(g3
g4
Ntp1560
Rp1561
(dp1562
g8
g9
(g10
(I0
tp1563
g12
tp1564
Rp1565
(I1
(I4
tp1566
g19
I00
S'fw\xdaA\xf0\xa7\x9aA\xa8WEAxE\xac@'
p1567
tp1568
bsg24
g25
(g19
S'A\xd4\xd1?'
p1569
tp1570
Rp1571
sg12
g9
(g10
(I0
tp1572
g12
tp1573
Rp1574
(I1
(I4
tp1575
g19
I00
S'\x05\xc0\xe4?\xeaB\x0c>\x0e\xf8\xfe@mV\x8aA'
p1576
tp1577
bsg35
g25
(g19
S'\x00\x00\x8aB'
p1578
tp1579
Rp1580
sg39
g1559
sg40
g41
(F-8.48799991607666
F4.181000232696533
tp1581
Rp1582
sg44
g41
(F-0.7950000166893005
F5.248000144958496
tp1583
Rp1584
sg47
g25
(g19
S'\x00\x00\x84B'
p1585
tp1586
Rp1587
sbsS'Pr'
p1588
g2
(g3
g4
Ntp1589
Rp1590
(dp1591
g8
g9
(g10
(I0
tp1592
g12
tp1593
Rp1594
(I1
(I4
tp1595
g19
I00
S'\x1cZ\xb0A\x8c[\x9dAk+FA\x01\xc14@'
p1596
tp1597
bsg24
g25
(g19
S'0\xbb\x03@'
p1598
tp1599
Rp1600
sg12
g9
(g10
(I0
tp1601
g12
tp1602
Rp1603
(I1
(I4
tp1604
g19
I00
S'\x12\x881@\xc6jc>\x9c"\x86A\xdd\xa4\x0fC'
p1605
tp1606
bsg35
g25
(g19
S'\x00\x00lB'
p1607
tp1608
Rp1609
sg39
g1588
sg40
g41
(F-2.938999891281128
F10.53499984741211
tp1610
Rp1611
sg44
g41
(F-0.5299999713897705
F2.8450000286102295
tp1612
Rp1613
sg47
g25
(g19
S'\x00\x00lB'
p1614
tp1615
Rp1616
sbsS'Pm+3'
p1617
g2
(g3
g4
Ntp1618
Rp1619
(dp1620
g8
g9
(g10
(I0
tp1621
g12
tp1622
Rp1623
(I1
(I4
tp1624
g19
I00
S'\xeek\xb4A\xeb\xe2\xa0A\xd7\x12AA}\xcb\x04@'
p1625
tp1626
bsg24
g25
(g19
S'o\xf5\x98?'
p1627
tp1628
Rp1629
sg12
g9
(g10
(I0
tp1630
g12
tp1631
Rp1632
(I1
(I4
tp1633
g19
I00
S'\xae\xb6\x1a@;:>>=\nRA\xc2\x97\xdbA'
p1634
tp1635
bsg35
g25
(g19
S'\x00\x00tB'
p1636
tp1637
Rp1638
sg39
g1617
sg40
g41
(F-4.35699987411499
F11.61400032043457
tp1639
Rp1640
sg44
g41
(F-0.5299999713897705
F3.2249999046325684
tp1641
Rp1642
sg47
g25
(g19
S'\x00\x00hB'
p1643
tp1644
Rp1645
sbsS'Bi+3'
p1646
g2
(g3
g4
Ntp1647
Rp1648
(dp1649
g8
g9
(g10
(I0
tp1650
g12
tp1651
Rp1652
(I1
(I4
tp1653
g19
I00
S'Aq\xaeAS\x05\x9cA\xa8\xd7\x98A^K\xe3@'
p1654
tp1655
bsg24
g25
(g19
S'\xa0\x89GA'
p1656
tp1657
Rp1658
sg12
g9
(g10
(I0
tp1659
g12
tp1660
Rp1661
(I1
(I4
tp1662
g19
I00
S'$(\x9e?I\xba\xc7@\xb5\xa3\xf0>J\x8c\xa2A'
p1663
tp1664
bsg35
g25
(g19
S'\x00\x00\xa6B'
p1665
tp1666
Rp1667
sg39
g1646
sg40
g41
(F-4.776000022888184
F8.930000305175781
tp1668
Rp1669
sg44
g41
(F-4.861000061035156
F10.559000015258789
tp1670
Rp1671
sg47
g25
(g19
S'\x00\x00\xa0B'
p1672
tp1673
Rp1674
sbsS'Pt'
p1675
g2
(g3
g4
Ntp1676
Rp1677
(dp1678
g8
g9
(g10
(I0
tp1679
g12
tp1680
Rp1681
(I1
(I4
tp1682
g19
I00
S'\x15\x0c\xd8Ax\x1c\x8eA\xdch{A\x12\x14\xb9@'
p1683
tp1684
bsg24
g25
(g19
S'G\x03;A'
p1685
tp1686
Rp1687
sg12
g9
(g10
(I0
tp1688
g12
tp1689
Rp1690
(I1
(I4
tp1691
g19
I00
S'\xb1\xa7\xc1?\xe3\xfc\x0cAAd\xd9>\xf2p\x1aB'
p1692
tp1693
bsg35
g25
(g19
S'\x00\x00\x9cB'
p1694
tp1695
Rp1696
sg39
g1675
sg40
g41
(F-5.232999801635742
F6.925000190734863
tp1697
Rp1698
sg44
g41
(F-2.3519999980926514
F8.387999534606934
tp1699
Rp1700
sg47
g25
(g19
S'\x00\x00\x9cB'
p1701
tp1702
Rp1703
sbsS'Pu'
p1704
g2
(g3
g4
Ntp1705
Rp1706
(dp1707
g8
g9
(g10
(I0
tp1708
g12
tp1709
Rp1710
(I1
(I4
tp1711
g19
I00
S'\x02\x1a\x12Bfw\xbeAe*\x86A\xa3\xaf^@'
p1712
tp1713
bsg24
g25
(g19
S'e\x19VA'
p1714
tp1715
Rp1716
sg12
g9
(g10
(I0
tp1717
g12
tp1718
Rp1719
(I1
(I4
tp1720
g19
I00
S'B\xaf\xff>\xa0\xe0P@\xc4 oA\xc2\xf5\xd3B'
p1721
tp1722
bsg35
g25
(g19
S'\x00\x00\xbcB'
p1723
tp1724
Rp1725
sg39
g1704
sg40
g41
(F-5.711999893188477
F14.535999298095703
tp1726
Rp1727
sg44
g41
(F-9.725000381469727
F4.329999923706055
tp1728
Rp1729
sg47
g25
(g19
S'\x00\x00\xbcB'
p1730
tp1731
Rp1732
sbsS'Bi+5'
p1733
g2
(g3
g4
Ntp1734
Rp1735
(dp1736
g8
g9
(g10
(I0
tp1737
g12
tp1738
Rp1739
(I1
(I4
tp1740
g19
I00
S'F%\x06B\xbe\xc1\xc8Ab\xff\x99A0L\xdd@'
p1741
tp1742
bsg24
g25
(g19
S'\xaf\x94\xd9\xc0'
p1743
tp1744
Rp1745
sg12
g9
(g10
(I0
tp1746
g12
tp1747
Rp1748
(I1
(I4
tp1749
g19
I00
S'^\xa2j?!\xe5\xc7><\xda\xb6@\x89AMA'
p1750
tp1751
bsg35
g25
(g19
S'\x00\x00\xa6B'
p1752
tp1753
Rp1754
sg39
g1733
sg40
g41
(F-4.776000022888184
F8.930000305175781
tp1755
Rp1756
sg44
g41
(F-4.861000061035156
F10.559000015258789
tp1757
Rp1758
sg47
g25
(g19
S'\x00\x00\x9cB'
p1759
tp1760
Rp1761
sbsS'U+4'
p1762
g2
(g3
g4
Ntp1763
Rp1764
(dp1765
g8
g9
(g10
(I0
tp1766
g12
tp1767
Rp1768
(I1
(I4
tp1769
g19
I00
S'j|\rB\xc4B\xb4A2w@A~\x8c\x99@'
p1770
tp1771
bsg24
g25
(g19
S'\nFTA'
p1772
tp1773
Rp1774
sg12
g9
(g10
(I0
tp1775
g12
tp1776
Rp1777
(I1
(I4
tp1778
g19
I00
S'\xc4?\x04?\xe2;C@$(IAe\xaa\xbbA'
p1779
tp1780
bsg35
g25
(g19
S'\x00\x00\xb8B'
p1781
tp1782
Rp1783
sg39
g1762
sg40
g41
(F-5.359000205993652
F13.409000396728516
tp1784
Rp1785
sg44
g41
(F-10.67300033569336
F9.653999328613281
tp1786
Rp1787
sg47
g25
(g19
S'\x00\x00\xb0B'
p1788
tp1789
Rp1790
sbsS'U+3'
p1791
g2
(g3
g4
Ntp1792
Rp1793
(dp1794
g8
g9
(g10
(I0
tp1795
g12
tp1796
Rp1797
(I1
(I4
tp1798
g19
I00
S'~L\x0eB\x0b5\xb4A\xc8vCA\x05\xdd\xab@'
p1799
tp1800
bsg24
g25
(g19
S'|\xf2TA'
p1801
tp1802
Rp1803
sg12
g9
(g10
(I0
tp1804
g12
tp1805
Rp1806
(I1
(I4
tp1807
g19
I00
S'->\x05?\x16\xdeG@\xd2oKA\x17\xb7\xd2A'
p1808
tp1809
bsg35
g25
(g19
S'\x00\x00\xb8B'
p1810
tp1811
Rp1812
sg39
g1791
sg40
g41
(F-5.359000205993652
F13.409000396728516
tp1813
Rp1814
sg44
g41
(F-10.67300033569336
F9.653999328613281
tp1815
Rp1816
sg47
g25
(g19
S'\x00\x00\xb2B'
p1817
tp1818
Rp1819
sbsS'C'
p1820
g2
(g3
g4
Ntp1821
Rp1822
(dp1823
g8
g9
(g10
(I0
tp1824
g12
tp1825
Rp1826
(I1
(I4
tp1827
g19
I00
S' \xd2?@\x93\xa9>@\x00\x00\x00\x00\x00\x00\x00\x00'
p1828
tp1829
bsg24
g25
(g19
S'\x00\x00\x00\x00'
p1830
tp1831
Rp1832
sg12
g9
(g10
(I0
tp1833
g12
tp1834
Rp1835
(I1
(I4
tp1836
g19
I00
S'4"\xf0A\xd3\xde8@\x00\x00\x00\x00\x00\x00\x00\x00'
p1837
tp1838
bsg35
g25
(g19
S'\x00\x00\xc0@'
p1839
tp1840
Rp1841
sg39
g1820
sg40
g41
(F0.0
F0.0
tp1842
Rp1843
sg44
g41
(F0.0
F0.0
tp1844
Rp1845
sg47
g25
(g19
S'\x00\x00\xc0@'
p1846
tp1847
Rp1848
sbsS'Cf'
p1849
g2
(g3
g4
Ntp1850
Rp1851
(dp1852
g8
g9
(g10
(I0
tp1853
g12
tp1854
Rp1855
(I1
(I4
tp1856
g19
I00
S'\x8b\xac\x13B\x93\x98\xc9AR\xa7\x92A\x1c\xce\x87@'
p1857
tp1858
bsg24
g25
(g19
S'EGTA'
p1859
tp1860
Rp1861
sg12
g9
(g10
(I0
tp1862
g12
tp1863
Rp1864
(I1
(I4
tp1865
g19
I00
S'S\x04\xe0>\xfa~@@lxFA\x82\x93\xa7B'
p1866
tp1867
bsg35
g25
(g19
S'\x00\x00\xc4B'
p1868
tp1869
Rp1870
sg39
g1849
sg40
g41
(F-6.797999858856201
F16.93000030517578
tp1871
Rp1872
sg44
g41
(F-7.683000087738037
F5.10699987411499
tp1873
Rp1874
sg47
g25
(g19
S'\x00\x00\xc4B'
p1875
tp1876
Rp1877
sbsS'I-1'
p1878
g2
(g3
g4
Ntp1879
Rp1880
(dp1881
g8
g9
(g10
(I0
tp1882
g12
tp1883
Rp1884
(I1
(I4
tp1885
g19
I00
S'\x98\xdd\xa1A\xdb\xf9\x97A \xd2\xf9@U\xc18@'
p1886
tp1887
bsg24
g25
(g19
S'\xe9H\x82@'
p1888
tp1889
Rp1890
sg12
g9
(g10
(I0
tp1891
g12
tp1892
Rp1893
(I1
(I4
tp1894
g19
I00
S'\xebs\x8b@\xf8S\xc3>\x0b5\xecA]\xdc\xa9B'
p1895
tp1896
bsg35
g25
(g19
S'\x00\x00TB'
p1897
tp1898
Rp1899
sg39
g1878
sg40
g41
(F-0.5789999961853027
F6.835000038146973
tp1900
Rp1901
sg44
g41
(F-0.7260000109672546
F1.812000036239624
tp1902
Rp1903
sg47
g25
(g19
S'\x00\x00XB'
p1904
tp1905
Rp1906
sbsS'Np'
p1907
g2
(g3
g4
Ntp1908
Rp1909
(dp1910
g8
g9
(g10
(I0
tp1911
g12
tp1912
Rp1913
(I1
(I4
tp1914
g19
I00
S'\xe6\xbf\x10Bm\xc5\xbcAB>zA\x9e\xef\x85@'
p1915
tp1916
bsg24
g25
(g19
S'\x80\xb7UA'
p1917
tp1918
Rp1919
sg12
g9
(g10
(I0
tp1920
g12
tp1921
Rp1922
(I1
(I4
tp1923
g19
I00
S'\xc7\r\x03?\xe1@P@\x92\xcbuAJ\xfb\xc2B'
p1924
tp1925
bsg35
g25
(g19
S'\x00\x00\xbaB'
p1926
tp1927
Rp1928
sg39
g1907
sg40
g41
(F-5.5289998054504395
F13.967000007629395
tp1929
Rp1930
sg44
g41
(F-11.157999992370605
F4.1479997634887695
tp1931
Rp1932
sg47
g25
(g19
S'\x00\x00\xbaB'
p1933
tp1934
Rp1935
sbsS'Pa'
p1936
g2
(g3
g4
Ntp1937
Rp1938
(dp1939
g8
g9
(g10
(I0
tp1940
g12
tp1941
Rp1942
(I1
(I4
tp1943
g19
I00
S"\xef\x89\x0fB\xc0[\xbaA\x8e\x06cA'\x88\x85@"
p1944
tp1945
bsg24
g25
(g19
S'\xf3\xdbVA'
p1946
tp1947
Rp1948
sg12
g9
(g10
(I0
tp1949
g12
tp1950
Rp1951
(I1
(I4
tp1952
g19
I00
S'i9\x0c?y\x92Z@Tc\x87A\x83\x80\xd2B'
p1953
tp1954
bsg35
g25
(g19
S'\x00\x00\xb6B'
p1955
tp1956
Rp1957
sg39
g1936
sg40
g41
(F-5.216000080108643
F12.868000030517578
tp1958
Rp1959
sg44
g41
(F-8.960000038146973
F9.284000396728516
tp1960
Rp1961
sg47
g25
(g19
S'\x00\x00\xb6B'
p1962
tp1963
Rp1964
sbsS'Pd'
p1965
g2
(g3
g4
Ntp1966
Rp1967
(dp1968
g8
g9
(g10
(I0
tp1969
g12
tp1970
Rp1971
(I1
(I4
tp1972
g19
I00
S'\xbb\xa7\x9aA\xf6\x06xA\xacs\xa9@\x98\x18\x1b?'
p1973
tp1974
bsg24
g25
(g19
S'\x80\x82\xa8@'
p1975
tp1976
Rp1977
sg12
g9
(g10
(I0
tp1978
g12
tp1979
Rp1980
(I1
(I4
tp1981
g19
I00
S'\x0e\xdb2?D\xa8\xff@@\xa4\xc9A\x15\xcc\x99B'
p1982
tp1983
bsg35
g25
(g19
S'\x00\x008B'
p1984
tp1985
Rp1986
sg39
g1965
sg40
g41
(F-0.05900000035762787
F3.934000015258789
tp1987
Rp1988
sg44
g41
(F-1.1770000457763672
F1.0069999694824219
tp1989
Rp1990
sg47
g25
(g19
S'\x00\x008B'
p1991
tp1992
Rp1993
sbsS'Ta+5'
p1994
g2
(g3
g4
Ntp1995
Rp1996
(dp1997
g8
g9
(g10
(I0
tp1998
g12
tp1999
Rp2000
(I1
(I4
tp2001
g19
I00
S'\x04E\xe9A\xc1\xb9\x96A\x92:MA\xe5a\xac@'
p2002
tp2003
bsg24
g25
(g19
S'\xe7\x8c\xe4?'
p2004
tp2005
Rp2006
sg12
g9
(g10
(I0
tp2007
g12
tp2008
Rp2009
(I1
(I4
tp2010
g19
I00
S'\xfb\xe8\xc0?\xe8\x15\xef=r\x16\xca@X\xcaFA'
p2011
tp2012
bsg35
g25
(g19
S'\x00\x00\x92B'
p2013
tp2014
Rp2015
sg39
g1994
sg40
g41
(F-6.35099983215332
F5.270999908447266
tp2016
Rp2017
sg44
g41
(F-1.2580000162124634
F6.5229997634887695
tp2018
Rp2019
sg47
g25
(g19
S'\x00\x00\x88B'
p2020
tp2021
Rp2022
sbsS'Xe'
p2023
g2
(g3
g4
Ntp2024
Rp2025
(dp2026
g8
g9
(g10
(I0
tp2027
g12
tp2028
Rp2029
(I1
(I4
tp2030
g19
I00
S'\xaeX\xa2A\x08=\x98A\x90\xa0\x0fAR\xb8\xfe?'
p2031
tp2032
bsg24
g25
(g19
S'"\x8em@'
p2033
tp2034
Rp2035
sg12
g9
(g10
(I0
tp2036
g12
tp2037
Rp2038
(I1
(I4
tp2039
g19
I00
S'\xa1g{@\xc5 \xb0>*\xba\xd3A\x17\x88\x80B'
p2040
tp2041
bsg35
g25
(g19
S'\x00\x00XB'
p2042
tp2043
Rp2044
sg39
g2023
sg40
g41
(F-0.7829999923706055
F7.3480000495910645
tp2045
Rp2046
sg44
g41
(F-0.6840000152587891
F1.9579999446868896
tp2047
Rp2048
sg47
g25
(g19
S'\x00\x00XB'
p2049
tp2050
Rp2051
sbsS'Lu+3'
p2052
g2
(g3
g4
Ntp2053
Rp2054
(dp2055
g8
g9
(g10
(I0
tp2056
g12
tp2057
Rp2058
(I1
(I4
tp2059
g19
I00
S'\xd0\xb3\xe3A\xcf\xf7\x90A\x84|MAG\x03\xb3@'
p2060
tp2061
bsg24
g25
(g19
S'\\r>@'
p2062
tp2063
Rp2064
sg12
g9
(g10
(I0
tp2065
g12
tp2066
Rp2067
(I1
(I4
tp2068
g19
I00
S'\x05Q\xd7?\xfe\xb4\x11>\xea\xca\xea@\xf8\xd3\x82A'
p2069
tp2070
bsg35
g25
(g19
S'\x00\x00\x8eB'
p2071
tp2072
Rp2073
sg39
g2052
sg40
g41
(F-7.132999897003174
F4.692999839782715
tp2074
Rp2075
sg44
g41
(F-0.9879999756813049
F5.857999801635742
tp2076
Rp2077
sg47
g25
(g19
S'\x00\x00\x88B'
p2078
tp2079
Rp2080
sbsS'Pm'
p2081
g2
(g3
g4
Ntp2082
Rp2083
(dp2084
g8
g9
(g10
(I0
tp2085
g12
tp2086
Rp2087
(I1
(I4
tp2088
g19
I00
S'X\xb9\xbaAB\xe0\x9cA\xdb\xf9QA\x9f\x028@'
p2089
tp2090
bsg24
g25
(g19
S'4\xd7\x01@'
p2091
tp2092
Rp2093
sg12
g9
(g10
(I0
tp2094
g12
tp2095
Rp2096
(I1
(I4
tp2097
g19
I00
S'G\x03$@(\xf0N>I\x9dqA\x93\xb8\x04C'
p2098
tp2099
bsg35
g25
(g19
S'\x00\x00tB'
p2100
tp2101
Rp2102
sg39
g2081
sg40
g41
(F-4.35699987411499
F11.61400032043457
tp2103
Rp2104
sg44
g41
(F-0.5299999713897705
F3.2249999046325684
tp2105
Rp2106
sg47
g25
(g19
S'\x00\x00tB'
p2107
tp2108
Rp2109
sbsS'Tl+1'
p2110
g2
(g3
g4
Ntp2111
Rp2112
(dp2113
g8
g9
(g10
(I0
tp2114
g12
tp2115
Rp2116
(I1
(I4
tp2117
g19
I00
S'!0\xabAE\xc7\xa3A~\xfb\x95A\xd4\x82\xda@'
p2118
tp2119
bsg24
g25
(g19
S'\xadiHA'
p2120
tp2121
Rp2122
sg12
g9
(g10
(I0
tp2123
g12
tp2124
Rp2125
(I1
(I4
tp2126
g19
I00
S'\x01M\xbc?\xefs\x04?}\xe8\xed@\x1d\xc9\xe6A'
p2127
tp2128
bsg35
g25
(g19
S'\x00\x00\xa2B'
p2129
tp2130
Rp2131
sg39
g2110
sg40
g41
(F-4.882999897003174
F8.08899974822998
tp2132
Rp2133
sg44
g41
(F-3.555999994277954
F9.659000396728516
tp2134
Rp2135
sg47
g25
(g19
S'\x00\x00\xa0B'
p2136
tp2137
Rp2138
sbsS'Pt+4'
p2139
g2
(g3
g4
Ntp2140
Rp2141
(dp2142
g8
g9
(g10
(I0
tp2143
g12
tp2144
Rp2145
(I1
(I4
tp2146
g19
I00
S'\x8a\xb0\xf7A\xf5\xb9\x7fA\xbe\xc1[Ams\xbd@'
p2147
tp2148
bsg24
g25
(g19
S'\xa0\xa6\xec@'
p2149
tp2150
Rp2151
sg12
g9
(g10
(I0
tp2152
g12
tp2153
Rp2154
(I1
(I4
tp2155
g19
I00
S'\xb9\xc2\x9f?\x85w\xd3@\xf7\xaf,>{\x83\x87A'
p2156
tp2157
bsg35
g25
(g19
S'\x00\x00\x9cB'
p2158
tp2159
Rp2160
sg39
g2139
sg40
g41
(F-5.232999801635742
F6.925000190734863
tp2161
Rp2162
sg44
g41
(F-2.3519999980926514
F8.387999534606934
tp2163
Rp2164
sg47
g25
(g19
S'\x00\x00\x94B'
p2165
tp2166
Rp2167
sbsS'Tl+3'
p2168
g2
(g3
g4
Ntp2169
Rp2170
(dp2171
g8
g9
(g10
(I0
tp2172
g12
tp2173
Rp2174
(I1
(I4
tp2175
g19
I00
S'\xbc\xf4\xf6A\xa3\x12\x93A\xc0\xec>A\x06/\xe0@'
p2176
tp2177
bsg24
g25
(g19
S'\xdc\xd7\x1cA'
p2178
tp2179
Rp2180
sg12
g9
(g10
(I0
tp2181
g12
tp2182
Rp2183
(I1
(I4
tp2184
g19
I00
S'\x04\xe7\x8c?\x8e;\xd1@\xefT`>\xf2\xb0\x89A'
p2185
tp2186
bsg35
g25
(g19
S'\x00\x00\xa2B'
p2187
tp2188
Rp2189
sg39
g2168
sg40
g41
(F-4.882999897003174
F8.08899974822998
tp2190
Rp2191
sg44
g41
(F-3.555999994277954
F9.659000396728516
tp2192
Rp2193
sg47
g25
(g19
S'\x00\x00\x9cB'
p2194
tp2195
Rp2196
sbsS'In+3'
p2197
g2
(g3
g4
Ntp2198
Rp2199
(dp2200
g8
g9
(g10
(I0
tp2201
g12
tp2202
Rp2203
(I1
(I4
tp2204
g19
I00
S'\x04\xd6\x98A\xeb\xe2\x90A|~r@\x00\x00\x00\x00'
p2205
tp2206
bsg24
g25
(g19
S'\x19\xe2\x9f@'
p2207
tp2208
Rp2209
sg12
g9
(g10
(I0
tp2210
g12
tp2211
Rp2212
(I1
(I4
tp2213
g19
I00
S'\x8c0\r?\xf1c\xca@B\xe0\x8aA\x00\x00\x00\x00'
p2214
tp2215
bsg35
g25
(g19
S'\x00\x00DB'
p2216
tp2217
Rp2218
sg39
g2197
sg40
g41
(F-0.12600000202655792
F5.045000076293945
tp2219
Rp2220
sg44
g41
(F-0.9359999895095825
F1.309999942779541
tp2221
Rp2222
sg47
g25
(g19
S'\x00\x008B'
p2223
tp2224
Rp2225
sbsS'Sm+3'
p2226
g2
(g3
g4
Ntp2227
Rp2228
(dp2229
g8
g9
(g10
(I0
tp2230
g12
tp2231
Rp2232
(I1
(I4
tp2233
g19
I00
S'\x054\xb9AF\x14\xa2A$\xb9>A\x98\xc0-@'
p2234
tp2235
bsg24
g25
(g19
S'\xc0_t?'
p2236
tp2237
Rp2238
sg12
g9
(g10
(I0
tp2239
g12
tp2240
Rp2241
(I1
(I4
tp2242
g19
I00
S'\x10@\x14@JB2>{\x83BA\xf6\x97\xc6A'
p2243
tp2244
bsg35
g25
(g19
S'\x00\x00xB'
p2245
tp2246
Rp2247
sg39
g2226
sg40
g41
(F-5.696000099182129
F12.319999694824219
tp2248
Rp2249
sg44
g41
(F-0.5329999923706055
F3.441999912261963
tp2250
Rp2251
sg47
g25
(g19
S'\x00\x00lB'
p2252
tp2253
Rp2254
sbsS'Gd'
p2255
g2
(g3
g4
Ntp2256
Rp2257
(dp2258
g8
g9
(g10
(I0
tp2259
g12
tp2260
Rp2261
(I1
(I4
tp2262
g19
I00
S'4\x91\xc8An\xa3\x98A\xf9\xa0]A\xa7\xe8b@'
p2263
tp2264
bsg24
g25
(g19
S'\xba\xda\x1a@'
p2265
tp2266
Rp2267
sg12
g9
(g10
(I0
tp2268
g12
tp2269
Rp2270
(I1
(I4
tp2271
g19
I00
S'\xdf7\x10@]Q:>\xfa\xedNA\xc6\xcb\xcaB'
p2272
tp2273
bsg35
g25
(g19
S'\x00\x00\x80B'
p2274
tp2275
Rp2276
sg39
g2255
sg40
g41
(F-9.241999626159668
F11.946000099182129
tp2277
Rp2278
sg44
g41
(F-0.5640000104904175
F3.9040000438690186
tp2279
Rp2280
sg47
g25
(g19
S'\x00\x00\x80B'
p2281
tp2282
Rp2283
sbsS'Ho'
p2284
g2
(g3
g4
Ntp2285
Rp2286
(dp2287
g8
g9
(g10
(I0
tp2288
g12
tp2289
Rp2290
(I1
(I4
tp2291
g19
I00
S'<=\xd7A\x1cZ\x8aA\xcc\xeehA\x0e\xdbh@'
p2292
tp2293
bsg24
g25
(g19
S'\xba,\x92@'
p2294
tp2295
Rp2296
sg12
g9
(g10
(I0
tp2297
g12
tp2298
Rp2299
(I1
(I4
tp2300
g19
I00
S'<\x83\x04@\xc9\xb0J>\x1b\r7A.P\xb9B'
p2301
tp2302
bsg35
g25
(g19
S'\x00\x00\x86B'
p2303
tp2304
Rp2305
sg39
g2284
sg40
g41
(F-12.255000114440918
F3.7039999961853027
tp2306
Rp2307
sg44
g41
(F-0.6660000085830688
F4.677999973297119
tp2308
Rp2309
sg47
g25
(g19
S'\x00\x00\x86B'
p2310
tp2311
Rp2312
sbsS'Hf'
p2313
g2
(g3
g4
Ntp2314
Rp2315
(dp2316
g8
g9
(g10
(I0
tp2317
g12
tp2318
Rp2319
(I1
(I4
tp2320
g19
I00
S'\xe9&\xe9A\xf8\xc2rA:#lA\xaa\x9a\x89@'
p2321
tp2322
bsg24
g25
(g19
S'\xfdM\tA'
p2323
tp2324
Rp2325
sg12
g9
(g10
(I0
tp2326
g12
tp2327
Rp2328
(I1
(I4
tp2329
g19
I00
S'K\x93\xea?0\x99\x19A\x01\xdc\x8c>\xd9\x0e\x90B'
p2330
tp2331
bsg35
g25
(g19
S'\x00\x00\x90B'
p2332
tp2333
Rp2334
sg39
g2313
sg40
g41
(F-6.715000152587891
F4.9770002365112305
tp2335
Rp2336
sg44
g41
(F-1.1180000305175781
F6.184999942779541
tp2337
Rp2338
sg47
g25
(g19
S'\x00\x00\x90B'
p2339
tp2340
Rp2341
sbsS'K'
p2342
g2
(g3
g4
Ntp2343
Rp2344
(dp2345
g8
g9
(g10
(I0
tp2346
g12
tp2347
Rp2348
(I1
(I4
tp2349
g19
I00
S'b\x7f\x03A\xd7\x12\xee@\xa9\xa4\x86?\x9f\xab]?'
p2350
tp2351
bsg24
g25
(g19
S'O\x1e\xb6?'
p2352
tp2353
Rp2354
sg12
g9
(g10
(I0
tp2355
g12
tp2356
Rp2357
(I1
(I4
tp2358
g19
I00
S'\xe9\xb7LAKYF?\xdf/UC\x84\xbc&B'
p2359
tp2360
bsg35
g25
(g19
S'\x00\x00\x98A'
p2361
tp2362
Rp2363
sg39
g2342
sg40
g41
(F0.36500000953674316
F1.065999984741211
tp2364
Rp2365
sg44
g41
(F0.17900000512599945
F0.25
tp2366
Rp2367
sg47
g25
(g19
S'\x00\x00\x98A'
p2368
tp2369
Rp2370
sbsS'He'
p2371
g2
(g3
g4
Ntp2372
Rp2373
(dp2374
g8
g9
(g10
(I0
tp2375
g12
tp2376
Rp2377
(I1
(I4
tp2378
g19
I00
S'$\x97_?\xaa\x82!?\x9bU\x9f>\xa2E6>'
p2379
tp2380
bsg24
g25
(g19
S'\x17\xb7\xd1;'
p2381
tp2382
Rp2383
sg12
g9
(g10
(I0
tp2384
g12
tp2385
Rp2386
(I1
(I4
tp2387
g19
I00
S'\xc1\xa8\x11A\xd0\xd5V@\xbak\xb7A\xe8j{?'
p2388
tp2389
bsg35
g25
(g19
S'\x00\x00\x00@'
p2390
tp2391
Rp2392
sg39
g2371
sg40
g41
(F0.0
F0.0
tp2393
Rp2394
sg44
g41
(F0.0
F0.0
tp2395
Rp2396
sg47
g25
(g19
S'\x00\x00\x00@'
p2397
tp2398
Rp2399
sbsS'Mg'
p2400
g2
(g3
g4
Ntp2401
Rp2402
(dp2403
g8
g9
(g10
(I0
tp2404
g12
tp2405
Rp2406
(I1
(I4
tp2407
g19
I00
S'\xebs\xad@\xa0\x1a\x0b@\x0f\x0b\x9d?\xce\xaa\x13@'
p2408
tp2409
bsg24
g25
(g19
S'\x1a\xc0[?'
p2410
tp2411
Rp2412
sg12
g9
(g10
(I0
tp2413
g12
tp2414
Rp2415
(I1
(I4
tp2416
g19
I00
S'\xc3\xf54@\xaf\x85\x9eB8\xf8\xc2>\xca2\xe6@'
p2417
tp2418
bsg35
g25
(g19
S'\x00\x00@A'
p2419
tp2420
Rp2421
sg39
g2400
sg40
g41
(F0.16500000655651093
F0.1770000010728836
tp2422
Rp2423
sg44
g41
(F0.041999999433755875
F0.035999998450279236
tp2424
Rp2425
sg47
g25
(g19
S'\x00\x00@A'
p2426
tp2427
Rp2428
sbsS'Hf+4'
p2429
g2
(g3
g4
Ntp2430
Rp2431
(dp2432
g8
g9
(g10
(I0
tp2433
g12
tp2434
Rp2435
(I1
(I4
tp2436
g19
I00
S':\x81\xe6AI\xae\x93A\xf0\xa7KA8-\xb3@'
p2437
tp2438
bsg24
g25
(g19
S'Ih\x19@'
p2439
tp2440
Rp2441
sg12
g9
(g10
(I0
tp2442
g12
tp2443
Rp2444
(I1
(I4
tp2445
g19
I00
S'\xaf\xb1\xcb?&\xff\x03>\xedd\xd8@\xea\x95`A'
p2446
tp2447
bsg35
g25
(g19
S'\x00\x00\x90B'
p2448
tp2449
Rp2450
sg39
g2429
sg40
g41
(F-6.715000152587891
F4.9770002365112305
tp2451
Rp2452
sg44
g41
(F-1.1180000305175781
F6.184999942779541
tp2453
Rp2454
sg47
g25
(g19
S'\x00\x00\x88B'
p2455
tp2456
Rp2457
sbsS'Mo'
p2458
g2
(g3
g4
Ntp2459
Rp2460
(dp2461
g8
g9
(g10
(I0
tp2462
g12
tp2463
Rp2464
(I1
(I4
tp2465
g19
I00
S'\xc3\xf5l@\x82\xe2\x89A\x9c3NA\xac\x8bo@'
p2466
tp2467
bsg24
g25
(g19
S'ff\x8c@'
p2468
tp2469
Rp2470
sg12
g9
(g10
(I0
tp2471
g12
tp2472
Rp2473
(I1
(I4
tp2474
g19
I00
S')\xed\x8d>-C\x8c?b\x100A4\xa2vB'
p2475
tp2476
bsg35
g25
(g19
S'\x00\x00(B'
p2477
tp2478
Rp2479
sg39
g2458
sg40
g41
(F-0.19099999964237213
F2.734999895095825
tp2480
Rp2481
sg44
g41
(F-1.8250000476837158
F0.6880000233650208
tp2482
Rp2483
sg47
g25
(g19
S'\x00\x00(B'
p2484
tp2485
Rp2486
sbsS'Mn'
p2487
g2
(g3
g4
Ntp2488
Rp2489
(dp2490
g8
g9
(g10
(I0
tp2491
g12
tp2492
Rp2493
(I1
(I4
tp2494
g19
I00
S'\xaa\x824A\x00o\xeb@6<A@V\x9f\x0f@'
p2495
tp2496
bsg24
g25
(g19
S'\x03x\x8b?'
p2497
tp2498
Rp2499
sg12
g9
(g10
(I0
tp2500
g12
tp2501
Rp2502
(I1
(I4
tp2503
g19
I00
S'\xa7\xe8\xaa@\xe9\xb7\xaf>o\xf0\x8eA4\x82\xa7B'
p2504
tp2505
bsg35
g25
(g19
S'\x00\x00\xc8A'
p2506
tp2507
Rp2508
sg39
g2487
sg40
g41
(F-0.5680000185966492
F2.808000087738037
tp2509
Rp2510
sg44
g41
(F0.29499998688697815
F0.7289999723434448
tp2511
Rp2512
sg47
g25
(g19
S'\x00\x00\xc8A'
p2513
tp2514
Rp2515
sbsS'O'
p2516
g2
(g3
g4
Ntp2517
Rp2518
(dp2519
g8
g9
(g10
(I0
tp2520
g12
tp2521
Rp2522
(I1
(I4
tp2523
g19
I00
S'9\xb4\x1c@\x82\xe2\xb1@\x00\x00\x00\x00\x00\x00\x00\x00'
p2524
tp2525
bsg24
g25
(g19
S'\x00\x00\x00\x00'
p2526
tp2527
Rp2528
sg12
g9
(g10
(I0
tp2529
g12
tp2530
Rp2531
(I1
(I4
tp2532
g19
I00
S'\xb2\x0c\xc6A\xf1c\x84@\x00\x00\x00\x00\x00\x00\x00\x00'
p2533
tp2534
bsg35
g25
(g19
S'\x00\x00\x00A'
p2535
tp2536
Rp2537
sg39
g2516
sg40
g41
(F0.0
F0.0
tp2538
Rp2539
sg44
g41
(F0.0
F0.0
tp2540
Rp2541
sg47
g25
(g19
S'\x00\x00\x00A'
p2542
tp2543
Rp2544
sbsS'Ca+2'
p2545
g2
(g3
g4
Ntp2546
Rp2547
(dp2548
g8
g9
(g10
(I0
tp2549
g12
tp2550
Rp2551
(I1
(I4
tp2552
g19
I00
S'$(zA%u\xfe@\xc5\xfe\x06A\x15\x8cZ?'
p2553
tp2554
bsg24
g25
(g19
S'\x00\x00n\xc1'
p2555
tp2556
Rp2557
sg12
g9
(g10
(I0
tp2558
g12
tp2559
Rp2560
(I1
(I4
tp2561
g19
I00
S'\xb3{\xf2\xbb\xdf\xe0\x1b?P\xfc$A\x8b\xec\xcfA'
p2562
tp2563
bsg35
g25
(g19
S'\x00\x00\xa0A'
p2564
tp2565
Rp2566
sg39
g2545
sg40
g41
(F0.3409999907016754
F1.2860000133514404
tp2567
Rp2568
sg44
g41
(F0.2029999941587448
F0.3059999942779541
tp2569
Rp2570
sg47
g25
(g19
S'\x00\x00\x90A'
p2571
tp2572
Rp2573
sbsS'S'
p2574
g2
(g3
g4
Ntp2575
Rp2576
(dp2577
g8
g9
(g10
(I0
tp2578
g12
tp2579
Rp2580
(I1
(I4
tp2581
g19
I00
S'7\x89\xb1@\x1d\xc9&A\x00\x00\x00\x00\x00\x00\x00\x00'
p2582
tp2583
bsg24
g25
(g19
S'\x00\x00\x00\x00'
p2584
tp2585
Rp2586
sg12
g9
(g10
(I0
tp2587
g12
tp2588
Rp2589
(I1
(I4
tp2590
g19
I00
S'\xdc\xd7\x06B\x9c\xa2\xf3?\x00\x00\x00\x00\x00\x00\x00\x00'
p2591
tp2592
bsg35
g25
(g19
S'\x00\x00\x80A'
p2593
tp2594
Rp2595
sg39
g2574
sg40
g41
(F0.0
F0.0
tp2596
Rp2597
sg44
g41
(F0.0
F0.0
tp2598
Rp2599
sg47
g25
(g19
S'\x00\x00\x80A'
p2600
tp2601
Rp2602
sbsS'W'
p2603
g2
(g3
g4
Ntp2604
Rp2605
(dp2606
g8
g9
(g10
(I0
tp2607
g12
tp2608
Rp2609
(I1
(I4
tp2610
g19
I00
S'\x87\xa7\xe8AH\xe1vAW\xecfA\x91\xd5\xa3@'
p2611
tp2612
bsg24
g25
(g19
S'33\x1eA'
p2613
tp2614
Rp2615
sg12
g9
(g10
(I0
tp2616
g12
tp2617
Rp2618
(I1
(I4
tp2619
g19
I00
S'v2\xdc?I\x9d\x13AA\xb6\xa4>X9dB'
p2620
tp2621
bsg35
g25
(g19
S'\x00\x00\x94B'
p2622
tp2623
Rp2624
sg39
g2603
sg40
g41
(F-6.047999858856201
F5.577000141143799
tp2625
Rp2626
sg44
g41
(F-1.4210000038146973
F6.872000217437744
tp2627
Rp2628
sg47
g25
(g19
S'\x00\x00\x94B'
p2629
tp2630
Rp2631
sbsS'Np+3'
p2632
g2
(g3
g4
Ntp2633
Rp2634
(dp2635
g8
g9
(g10
(I0
tp2636
g12
tp2637
Rp2638
(I1
(I4
tp2639
g19
I00
S'`\xd4\x0eBl\xe7\xb4A7\xd6OA(\xd5\xad@'
p2640
tp2641
bsg24
g25
(g19
S'\x06\x12TA'
p2642
tp2643
Rp2644
sg12
g9
(g10
(I0
tp2645
g12
tp2646
Rp2647
(I1
(I4
tp2648
g19
I00
S'-\x98\x00?\xbdoB@\x82QBAA\xf1\xcbA'
p2649
tp2650
bsg35
g25
(g19
S'\x00\x00\xbaB'
p2651
tp2652
Rp2653
sg39
g2632
sg40
g41
(F-5.5289998054504395
F13.967000007629395
tp2654
Rp2655
sg44
g41
(F-11.157999992370605
F4.1479997634887695
tp2656
Rp2657
sg47
g25
(g19
S'\x00\x00\xb4B'
p2658
tp2659
Rp2660
sbsS'Ho+3'
p2661
g2
(g3
g4
Ntp2662
Rp2663
(dp2664
g8
g9
(g10
(I0
tp2665
g12
tp2666
Rp2667
(I1
(I4
tp2668
g19
I00
S'l\t\xd1A\x92\xcb\xa0A*\xa9?A\xf0\xf9\x9d@'
p2669
tp2670
bsg24
g25
(g19
S'\xc6PZ?'
p2671
tp2672
Rp2673
sg12
g9
(g10
(I0
tp2674
g12
tp2675
Rp2676
(I1
(I4
tp2677
g19
I00
S'y\x92\xf4?\xdd\xb3\x0e>\x8a\xcd\x0cA\xf5\xb9\x94A'
p2678
tp2679
bsg35
g25
(g19
S'\x00\x00\x86B'
p2680
tp2681
Rp2682
sg39
g2661
sg40
g41
(F-12.255000114440918
F3.7039999961853027
tp2683
Rp2684
sg44
g41
(F-0.6660000085830688
F4.677999973297119
tp2685
Rp2686
sg47
g25
(g19
S'\x00\x00\x80B'
p2687
tp2688
Rp2689
sbsS'Np+4'
p2690
g2
(g3
g4
Ntp2691
Rp2692
(dp2693
g8
g9
(g10
(I0
tp2694
g12
tp2695
Rp2696
(I1
(I4
tp2697
g19
I00
S'\x8c\n\x0eB-\xa1\xb4A\xf4lLA\xaa}\x9d@'
p2698
tp2699
bsg24
g25
(g19
S'\xb6bSA'
p2700
tp2701
Rp2702
sg12
g9
(g10
(I0
tp2703
g12
tp2704
Rp2705
(I1
(I4
tp2706
g19
I00
S'\xe8K\xff>^\xd7=@\xa5,?Ai\x00\xb6A'
p2707
tp2708
bsg35
g25
(g19
S'\x00\x00\xbaB'
p2709
tp2710
Rp2711
sg39
g2690
sg40
g41
(F-5.5289998054504395
F13.967000007629395
tp2712
Rp2713
sg44
g41
(F-11.157999992370605
F4.1479997634887695
tp2714
Rp2715
sg47
g25
(g19
S'\x00\x00\xb2B'
p2716
tp2717
Rp2718
sbsS'Zn'
p2719
g2
(g3
g4
Ntp2720
Rp2721
(dp2722
g8
g9
(g10
(I0
tp2723
g12
tp2724
Rp2725
(I1
(I4
tp2726
g19
I00
S'U0aA\x81\x04\xe1@33\xa5@q=\x1a@'
p2727
tp2728
bsg24
g25
(g19
S'\xc0\xec\xa6?'
p2729
tp2730
Rp2731
sg12
g9
(g10
(I0
tp2732
g12
tp2733
Rp2734
(I1
(I4
tp2735
g19
I00
S'\xf4\xfdP@2\xe6n>\x90\x0f%A\xbc\xd6jB'
p2736
tp2737
bsg35
g25
(g19
S'\x00\x00\xf0A'
p2738
tp2739
Rp2740
sg39
g2719
sg40
g41
(F-1.6119999885559082
F0.6779999732971191
tp2741
Rp2742
sg44
g41
(F0.22200000286102295
F1.430999994277954
tp2743
Rp2744
sg47
g25
(g19
S'\x00\x00\xf0A'
p2745
tp2746
Rp2747
sbsS'Mo+5'
p2748
g2
(g3
g4
Ntp2749
Rp2750
(dp2751
g8
g9
(g10
(I0
tp2752
g12
tp2753
Rp2754
(I1
(I4
tp2755
g19
I00
S'\x84\x1e\xa8A)\xcb\x90ADi7A\x9a\x99=?'
p2756
tp2757
bsg24
g25
(g19
S'V\x0ee\xc1'
p2758
tp2759
Rp2760
sg12
g9
(g10
(I0
tp2761
g12
tp2762
Rp2763
(I1
(I4
tp2764
g19
I00
S'J\x07k<Y\xdd\x82?\x04\x9c\x0cA\xf8\xc2\xbaA'
p2765
tp2766
bsg35
g25
(g19
S'\x00\x00(B'
p2767
tp2768
Rp2769
sg39
g2748
sg40
g41
(F-0.19099999964237213
F2.734999895095825
tp2770
Rp2771
sg44
g41
(F-1.8250000476837158
F0.6880000233650208
tp2772
Rp2773
sg47
g25
(g19
S'\x00\x00\x14B'
p2774
tp2775
Rp2776
sbsS'Ir'
p2777
g2
(g3
g4
Ntp2778
Rp2779
(dp2780
g8
g9
(g10
(I0
tp2781
g12
tp2782
Rp2783
(I1
(I4
tp2784
g19
I00
S'op\xdaA8\xd6\x85A\xb4\xc8yA>\xae\xba@'
p2785
tp2786
bsg24
g25
(g19
S'"\x8e7A'
p2787
tp2788
Rp2789
sg12
g9
(g10
(I0
tp2790
g12
tp2791
Rp2792
(I1
(I4
tp2793
g19
I00
S'\x8b\xe0\xcb?6\xd9\rA\x16\xf9\xd5> \x014B'
p2794
tp2795
bsg35
g25
(g19
S'\x00\x00\x9aB'
p2796
tp2797
Rp2798
sg39
g2777
sg40
g41
(F-5.390999794006348
F6.565999984741211
tp2799
Rp2800
sg44
g41
(F-2.065999984741211
F7.989999771118164
tp2801
Rp2802
sg47
g25
(g19
S'\x00\x00\x9aB'
p2803
tp2804
Rp2805
sbsS'Eu'
p2806
g2
(g3
g4
Ntp2807
Rp2808
(dp2809
g8
g9
(g10
(I0
tp2810
g12
tp2811
Rp2812
(I1
(I4
tp2813
g19
I00
S'\xea\x04\xc5At\xb5\x98A0*\\A\x84\r;@'
p2814
tp2815
bsg24
g25
(g19
S'\x9c\xc4$@'
p2816
tp2817
Rp2818
sg12
g9
(g10
(I0
tp2819
g12
tp2820
Rp2821
(I1
(I4
tp2822
g19
I00
S'[\xd3\x18@]\xdcF>\xd7\x12\\A\x16Y\xf6B'
p2823
tp2824
bsg35
g25
(g19
S'\x00\x00|B'
p2825
tp2826
Rp2827
sg39
g2806
sg40
g41
(F-7.7179999351501465
F11.276000022888184
tp2828
Rp2829
sg44
g41
(F-0.5419999957084656
F3.6689999103546143
tp2830
Rp2831
sg47
g25
(g19
S'\x00\x00|B'
p2832
tp2833
Rp2834
sbsS'Zr'
p2835
g2
(g3
g4
Ntp2836
Rp2837
(dp2838
g8
g9
(g10
(I0
tp2839
g12
tp2840
Rp2841
(I1
(I4
tp2842
g19
I00
S'\x12\x03\x8fA\x02+/A\xafZ\xad@\xbb\x0fj@'
p2843
tp2844
bsg24
g25
(g19
S'?o\x04@'
p2845
tp2846
Rp2847
sg12
g9
(g10
(I0
tp2848
g12
tp2849
Rp2850
(I1
(I4
tp2851
g19
I00
S'\xdeY\xa3?\xf0\xa7>A\xce\xe3\xf0=MS\xafB'
p2852
tp2853
bsg35
g25
(g19
S'\x00\x00 B'
p2854
tp2855
Rp2856
sg39
g2835
sg40
g41
(F-0.3140000104904175
F2.244999885559082
tp2857
Rp2858
sg44
g41
(F-2.9649999141693115
F0.5600000023841858
tp2859
Rp2860
sg47
g25
(g19
S'\x00\x00 B'
p2861
tp2862
Rp2863
sbsS'Er'
p2864
g2
(g3
g4
Ntp2865
Rp2866
(dp2867
g8
g9
(g10
(I0
tp2868
g12
tp2869
Rp2870
(I1
(I4
tp2871
g19
I00
S'\x1a@\xddA\x91m\x83Az\xa5oA\x7f\xde>@'
p2872
tp2873
bsg24
g25
(g19
S'it\xbd@'
p2874
tp2875
Rp2876
sg12
g9
(g10
(I0
tp2877
g12
tp2878
Rp2879
(I1
(I4
tp2880
g19
I00
S'5\xb5\x04@\xfb\xe8d>3\xc45A\xf0g\xd3B'
p2881
tp2882
bsg35
g25
(g19
S'\x00\x00\x88B'
p2883
tp2884
Rp2885
sg39
g2864
sg40
g41
(F-9.732999801635742
F3.937000036239624
tp2886
Rp2887
sg44
g41
(F-0.7229999899864197
F4.958000183105469
tp2888
Rp2889
sg47
g25
(g19
S'\x00\x00\x88B'
p2890
tp2891
Rp2892
sbsS'Pu+3'
p2893
g2
(g3
g4
Ntp2894
Rp2895
(dp2896
g8
g9
(g10
(I0
tp2897
g12
tp2898
Rp2899
(I1
(I4
tp2900
g19
I00
S')\\\x0fB6\xbc\xb5A\x8cJYA\x08 \xb5@'
p2901
tp2902
bsg24
g25
(g19
S'\x83/SA'
p2903
tp2904
Rp2905
sg12
g9
(g10
(I0
tp2906
g12
tp2907
Rp2908
(I1
(I4
tp2909
g19
I00
S'\x88I\xf8>\xf9\x83=@\x94\x878A\x901\xc3A'
p2910
tp2911
bsg35
g25
(g19
S'\x00\x00\xbcB'
p2912
tp2913
Rp2914
sg39
g2893
sg40
g41
(F-5.711999893188477
F14.535999298095703
tp2915
Rp2916
sg44
g41
(F-9.725000381469727
F4.329999923706055
tp2917
Rp2918
sg47
g25
(g19
S'\x00\x00\xb6B'
p2919
tp2920
Rp2921
sbsS'Ni'
p2922
g2
(g3
g4
Ntp2923
Rp2924
(dp2925
g8
g9
(g10
(I0
tp2926
g12
tp2927
Rp2928
(I1
(I4
tp2929
g19
I00
S'\xcffMA\x10X\xe9@\x9c3\x8e@\xecQ\x18@'
p2930
tp2931
bsg24
g25
(g19
S'd]\x84?'
p2932
tp2933
Rp2934
sg12
g9
(g10
(I0
tp2935
g12
tp2936
Rp2937
(I1
(I4
tp2938
g19
I00
S'X9x@\xf8S\x83> \xd2BA(\xaf\x84B'
p2939
tp2940
bsg35
g25
(g19
S'\x00\x00\xe0A'
p2941
tp2942
Rp2943
sg39
g2922
sg40
g41
(F-2.9560000896453857
F0.5090000033378601
tp2944
Rp2945
sg44
g41
(F0.2849999964237213
F1.1130000352859497
tp2946
Rp2947
sg47
g25
(g19
S'\x00\x00\xe0A'
p2948
tp2949
Rp2950
sbsS'Ir+3'
p2951
g2
(g3
g4
Ntp2952
Rp2953
(dp2954
g8
g9
(g10
(I0
tp2955
g12
tp2956
Rp2957
(I1
(I4
tp2958
g19
I00
S'&S\xf3A\xc1\xca}A\xfe\xd4YA\x18>\xba@'
p2959
tp2960
bsg24
g25
(g19
S'\xe8v\x04A'
p2961
tp2962
Rp2963
sg12
g9
(g10
(I0
tp2964
g12
tp2965
Rp2966
(I1
(I4
tp2967
g19
I00
S'\xf6\xee\xab?\xaa}\xe3@P\x8bQ>k\x9a\xa2A'
p2968
tp2969
bsg35
g25
(g19
S'\x00\x00\x9aB'
p2970
tp2971
Rp2972
sg39
g2951
sg40
g41
(F-5.390999794006348
F6.565999984741211
tp2973
Rp2974
sg44
g41
(F-2.065999984741211
F7.989999771118164
tp2975
Rp2976
sg47
g25
(g19
S'\x00\x00\x94B'
p2977
tp2978
Rp2979
sbsS'Yb+2'
p2980
g2
(g3
g4
Ntp2981
Rp2982
(dp2983
g8
g9
(g10
(I0
tp2984
g12
tp2985
Rp2986
(I1
(I4
tp2987
g19
I00
S'\x9a\xf7\xe0A\x1ft\x8dA\x04VUA\xb4\xb0\xa4@'
p2988
tp2989
bsg24
g25
(g19
S'\xdbmm@'
p2990
tp2991
Rp2992
sg12
g9
(g10
(I0
tp2993
g12
tp2994
Rp2995
(I1
(I4
tp2996
g19
I00
S'\xdd{\xe4?-\xcf#>\xbb\xed\x02A\xb8\x1e\xa3A'
p2997
tp2998
bsg35
g25
(g19
S'\x00\x00\x8cB'
p2999
tp3000
Rp3001
sg39
g2980
sg40
g41
(F-7.701000213623047
F4.432000160217285
tp3002
Rp3003
sg44
g41
(F-0.8840000033378601
F5.547999858856201
tp3004
Rp3005
sg47
g25
(g19
S'\x00\x00\x88B'
p3006
tp3007
Rp3008
sbsS'Yb+3'
p3009
g2
(g3
g4
Ntp3010
Rp3011
(dp3012
g8
g9
(g10
(I0
tp3013
g12
tp3014
Rp3015
(I1
(I4
tp3016
g19
I00
S'4"\xdfAY\x17\x96A\x17\xb7IA>?\xaf@'
p3017
tp3018
bsg24
g25
(g19
S'\x01\xa4\x10@'
p3019
tp3020
Rp3021
sg12
g9
(g10
(I0
tp3022
g12
tp3023
Rp3024
(I1
(I4
tp3025
g19
I00
S'\xc5\xc9\xdd?\xf7\x1e\x0e>\xa2\x9c\xf4@\xbc\x85\x86A'
p3026
tp3027
bsg35
g25
(g19
S'\x00\x00\x8cB'
p3028
tp3029
Rp3030
sg39
g3009
sg40
g41
(F-7.701000213623047
F4.432000160217285
tp3031
Rp3032
sg44
g41
(F-0.8840000033378601
F5.547999858856201
tp3033
Rp3034
sg47
g25
(g19
S'\x00\x00\x86B'
p3035
tp3036
Rp3037
sbsS'Na'
p3038
g2
(g3
g4
Ntp3039
Rp3040
(dp3041
g8
g9
(g10
(I0
tp3042
g12
tp3043
Rp3044
(I1
(I4
tp3045
g19
I00
S'8g\x98@C\x1cK@*:\xa2?;p\x8e?'
p3046
tp3047
bsg24
g25
(g19
S'V\x0e-?'
p3048
tp3049
Rp3050
sg12
g9
(g10
(I0
tp3051
g12
tp3052
Rp3053
(I1
(I4
tp3054
g19
I00
S'q=R@\xa6y\rA.\x90\xa0>\x8bl\x01C'
p3055
tp3056
bsg35
g25
(g19
S'\x00\x000A'
p3057
tp3058
Rp3059
sg39
g3038
sg40
g41
(F0.1289999932050705
F0.12399999797344208
tp3060
Rp3061
sg44
g41
(F0.029999999329447746
F0.02500000037252903
tp3062
Rp3063
sg47
g25
(g19
S'\x00\x000A'
p3064
tp3065
Rp3066
sbsS'V+2'
p3067
g2
(g3
g4
Ntp3068
Rp3069
(dp3070
g8
g9
(g10
(I0
tp3071
g12
tp3072
Rp3073
(I1
(I4
tp3074
g19
I00
S'-\xb2!A\xcaT\xeb@%u\x12@}\xae\xb6<'
p3075
tp3076
bsg24
g25
(g19
S'\x16j\x9d?'
p3077
tp3078
Rp3079
sg12
g9
(g10
(I0
tp3080
g12
tp3081
Rp3082
(I1
(I4
tp3083
g19
I00
S'\xb57\xdc@\xa5\xbd\xe1>8g\xa2Aw>\xe6B'
p3084
tp3085
bsg35
g25
(g19
S'\x00\x00\xb8A'
p3086
tp3087
Rp3088
sg39
g3067
sg40
g41
(F0.03500000014901161
F2.109999895095825
tp3089
Rp3090
sg44
g41
(F0.2669999897480011
F0.5299999713897705
tp3091
Rp3092
sg47
g25
(g19
S'\x00\x00\xa8A'
p3093
tp3094
Rp3095
sbsS'V+3'
p3096
g2
(g3
g4
Ntp3097
Rp3098
(dp3099
g8
g9
(g10
(I0
tp3100
g12
tp3101
Rp3102
(I1
(I4
tp3103
g19
I00
S'\x0e\xe7\x16A\xa5\xbd\xf7@\xcc\xd1\t@x(\x8a<'
p3104
tp3105
bsg24
g25
(g19
S'\xa5\x14(?'
p3106
tp3107
Rp3108
sg12
g9
(g10
(I0
tp3109
g12
tp3110
Rp3111
(I1
(I4
tp3112
g19
I00
S'\xb5\xa6\xcc@RF\xc4>\x84\rsAB\xe0\x7fB'
p3113
tp3114
bsg35
g25
(g19
S'\x00\x00\xb8A'
p3115
tp3116
Rp3117
sg39
g3096
sg40
g41
(F0.03500000014901161
F2.109999895095825
tp3118
Rp3119
sg44
g41
(F0.2669999897480011
F0.5299999713897705
tp3120
Rp3121
sg47
g25
(g19
S'\x00\x00\xa0A'
p3122
tp3123
Rp3124
sbsS'Nd'
p3125
g2
(g3
g4
Ntp3126
Rp3127
(dp3128
g8
g9
(g10
(I0
tp3129
g12
tp3130
Rp3131
(I1
(I4
tp3132
g19
I00
S'\xdby\xb5ADz\x9dANbLA\xd9|6@'
p3133
tp3134
bsg24
g25
(g19
S'\xe4\x0f\xfe?'
p3135
tp3136
Rp3137
sg12
g9
(g10
(I0
tp3138
g12
tp3139
Rp3140
(I1
(I4
tp3141
g19
I00
S'\x13f*@\xde\xaeW>\xf6(~A+\xe7\tC'
p3142
tp3143
bsg35
g25
(g19
S'\x00\x00pB'
p3144
tp3145
Rp3146
sg39
g3125
sg40
g41
(F-3.430999994277954
F10.932999610900879
tp3147
Rp3148
sg44
g41
(F-0.5350000262260437
F3.0179998874664307
tp3149
Rp3150
sg47
g25
(g19
S'\x00\x00pB'
p3151
tp3152
Rp3153
sbsS'Ne'
p3154
g2
(g3
g4
Ntp3155
Rp3156
(dp3157
g8
g9
(g10
(I0
tp3158
g12
tp3159
Rp3160
(I1
(I4
tp3161
g19
I00
S'\xa3#}@33G@U0\xba?G\x03\x90?'
p3162
tp3163
bsg24
g25
(g19
S'\xcf\xf7\xb3>'
p3164
tp3165
Rp3166
sg12
g9
(g10
(I0
tp3167
g12
tp3168
Rp3169
(I1
(I4
tp3170
g19
I00
S'\x9aw\x06A\xdcF[@h"l>H\xbf\xadA'
p3171
tp3172
bsg35
g25
(g19
S'\x00\x00 A'
p3173
tp3174
Rp3175
sg39
g3154
sg40
g41
(F0.09700000286102295
F0.08299999684095383
tp3176
Rp3177
sg44
g41
(F0.020999999716877937
F0.01600000075995922
tp3178
Rp3179
sg47
g25
(g19
S'\x00\x00 A'
p3180
tp3181
Rp3182
sbsS'Bi'
p3183
g2
(g3
g4
Ntp3184
Rp3185
(dp3186
g8
g9
(g10
(I0
tp3187
g12
tp3188
Rp3189
(I1
(I4
tp3190
g19
I00
S'\xc1y\x05BL7OA\x9c\xb3\x84A\xb0\x03\xcf@'
p3191
tp3192
bsg24
g25
(g19
S'N@YA'
p3193
tp3194
Rp3195
sg12
g9
(g10
(I0
tp3196
g12
tp3197
Rp3198
(I1
(I4
tp3199
g19
I00
S'X94?\x8a\x1f;@\xff\xb2\x0cA\x86\t@B'
p3200
tp3201
bsg35
g25
(g19
S'\x00\x00\xa6B'
p3202
tp3203
Rp3204
sg39
g3183
sg40
g41
(F-4.776000022888184
F8.930000305175781
tp3205
Rp3206
sg44
g41
(F-4.861000061035156
F10.559000015258789
tp3207
Rp3208
sg47
g25
(g19
S'\x00\x00\xa6B'
p3209
tp3210
Rp3211
sbsS'Ru+3'
p3212
g2
(g3
g4
Ntp3213
Rp3214
(dp3215
g8
g9
(g10
(I0
tp3216
g12
tp3217
Rp3218
(I1
(I4
tp3219
g19
I00
S'\xaa\x82\x94A\xb2\x9dTA`7\x15A\xf1\x9d@@'
p3220
tp3221
bsg24
g25
(g19
S'\xda\x1bL\xc0'
p3222
tp3223
Rp3224
sg12
g9
(g10
(I0
tp3225
g12
tp3226
Rp3227
(I1
(I4
tp3228
g19
I00
S'\x8e\xeaX?=\xf2\x05A\xe6\xaf\x90<\x93\x18\xb7A'
p3229
tp3230
bsg35
g25
(g19
S'\x00\x000B'
p3231
tp3232
Rp3233
sg39
g3212
sg40
g41
(F-0.10499999672174454
F3.2960000038146973
tp3234
Rp3235
sg44
g41
(F-1.4199999570846558
F0.8360000252723694
tp3236
Rp3237
sg47
g25
(g19
S'\x00\x00$B'
p3238
tp3239
Rp3240
sbsS'Ga+3'
p3241
g2
(g3
g4
Ntp3242
Rp3243
(dp3244
g8
g9
(g10
(I0
tp3245
g12
tp3246
Rp3247
(I1
(I4
tp3248
g19
I00
S'n\x12KA\xd1\\\xd6@5$\xc2@E\xd8\x80?'
p3249
tp3250
bsg24
g25
(g19
S'\xa0\x89\xc4?'
p3251
tp3252
Rp3253
sg12
g9
(g10
(I0
tp3254
g12
tp3255
Rp3256
(I1
(I4
tp3257
g19
I00
S'\xf7\x014@\xff[i>?\xa9\xcb@_\x98fA'
p3258
tp3259
bsg35
g25
(g19
S'\x00\x00\xf8A'
p3260
tp3261
Rp3262
sg39
g3241
sg40
g41
(F-1.3539999723434448
F0.7770000100135803
tp3263
Rp3264
sg44
g41
(F0.16300000250339508
F1.6089999675750732
tp3265
Rp3266
sg47
g25
(g19
S'\x00\x00\xe0A'
p3267
tp3268
Rp3269
sbsS'Pt+2'
p3270
g2
(g3
g4
Ntp3271
Rp3272
(dp3273
g8
g9
(g10
(I0
tp3274
g12
tp3275
Rp3276
(I1
(I4
tp3277
g19
I00
S'B\xbe\xeeAz\xc7\x85A\xdeqSA_F\xcb@'
p3278
tp3279
bsg24
g25
(g19
S'\x13\xa7\x1dA'
p3280
tp3281
Rp3282
sg12
g9
(g10
(I0
tp3283
g12
tp3284
Rp3285
(I1
(I4
tp3286
g19
I00
S'\x85%\xaa?)y\xec@\xdd\xce\x86>r\x8a\xb7A'
p3287
tp3288
bsg35
g25
(g19
S'\x00\x00\x9cB'
p3289
tp3290
Rp3291
sg39
g3270
sg40
g41
(F-5.232999801635742
F6.925000190734863
tp3292
Rp3293
sg44
g41
(F-2.3519999980926514
F8.387999534606934
tp3294
Rp3295
sg47
g25
(g19
S'\x00\x00\x98B'
p3296
tp3297
Rp3298
sbsS'Au+1'
p3299
g2
(g3
g4
Ntp3300
Rp3301
(dp3302
g8
g9
(g10
(I0
tp3303
g12
tp3304
Rp3305
(I1
(I4
tp3306
g19
I00
S'R\x16\xe0A.\x90\x8eA\xd8_eA\xab\x95\xd2@'
p3307
tp3308
bsg24
g25
(g19
S'\xac\xad3A'
p3309
tp3310
Rp3311
sg12
g9
(g10
(I0
tp3312
g12
tp3313
Rp3314
(I1
(I4
tp3315
g19
I00
S'\xfc5\xad?\xfc\xa9\xf7@3\xa8\xb6>\x02<\xd3A'
p3316
tp3317
bsg35
g25
(g19
S'\x00\x00\x9eB'
p3318
tp3319
Rp3320
sg39
g3299
sg40
g41
(F-5.0960001945495605
F7.296999931335449
tp3321
Rp3322
sg44
g41
(F-2.687999963760376
F8.79800033569336
tp3323
Rp3324
sg47
g25
(g19
S'\x00\x00\x9cB'
p3325
tp3326
Rp3327
sbsS'Ru+4'
p3328
g2
(g3
g4
Ntp3329
Rp3330
(dp3331
g8
g9
(g10
(I0
tp3332
g12
tp3333
Rp3334
(I1
(I4
tp3335
g19
I00
S'\x9d\x00\x94A\xf3\xdbRA9\xd1\x96@\xc6\xdc\x0b@'
p3336
tp3337
bsg24
g25
(g19
S'\x8b7\xb6?'
p3338
tp3339
Rp3340
sg12
g9
(g10
(I0
tp3341
g12
tp3342
Rp3343
(I1
(I4
tp3344
g19
I00
S'\x876X?e\x01\x02A\xba\xda\xba>\x9e\xcd\xa6A'
p3345
tp3346
bsg35
g25
(g19
S'\x00\x000B'
p3347
tp3348
Rp3349
sg39
g3328
sg40
g41
(F-0.10499999672174454
F3.2960000038146973
tp3350
Rp3351
sg44
g41
(F-1.4199999570846558
F0.8360000252723694
tp3352
Rp3353
sg47
g25
(g19
S'\x00\x00 B'
p3354
tp3355
Rp3356
sbsS'Sc+3'
p3357
g2
(g3
g4
Ntp3358
Rp3359
(dp3360
g8
g9
(g10
(I0
tp3361
g12
tp3362
Rp3363
(I1
(I4
tp3364
g19
I00
S'\xadiVA\xd2o\x00A4h\xd4?x(\xca?'
p3365
tp3366
bsg24
g25
(g19
S'\x9bU\xd5\xc0'
p3367
tp3368
Rp3369
sg12
g9
(g10
(I0
tp3370
g12
tp3371
Rp3372
(I1
(I4
tp3373
g19
I00
S'<\xda\x98>\x14\xd0\xfe@\xd6s\x92\xbe\x94\x87\x80A'
p3374
tp3375
bsg35
g25
(g19
S'\x00\x00\xa8A'
p3376
tp3377
Rp3378
sg39
g3357
sg40
g41
(F0.2849999964237213
F1.5329999923706055
tp3379
Rp3380
sg44
g41
(F0.22599999606609344
F0.3720000088214874
tp3381
Rp3382
sg47
g25
(g19
S'\x00\x00\x90A'
p3383
tp3384
Rp3385
sbsS'Gd+3'
p3386
g2
(g3
g4
Ntp3387
Rp3388
(dp3389
g8
g9
(g10
(I0
tp3390
g12
tp3391
Rp3392
(I1
(I4
tp3393
g19
I00
S'\xd6\xc5\xc2A\xcc]\xa3A\xcc\xee=A\xec\xc0m@'
p3394
tp3395
bsg24
g25
(g19
S'\x8d$%?'
p3396
tp3397
Rp3398
sg12
g9
(g10
(I0
tp3399
g12
tp3400
Rp3401
(I1
(I4
tp3402
g19
I00
S'\x86\xac\x08@\xf2A\x1f>N@)A\x8a\x9f\xadA'
p3403
tp3404
bsg35
g25
(g19
S'\x00\x00\x80B'
p3405
tp3406
Rp3407
sg39
g3386
sg40
g41
(F-9.241999626159668
F11.946000099182129
tp3408
Rp3409
sg44
g41
(F-0.5640000104904175
F3.9040000438690186
tp3410
Rp3411
sg47
g25
(g19
S'\x00\x00tB'
p3412
tp3413
Rp3414
sbsS'Fr'
p3415
g2
(g3
g4
Ntp3416
Rp3417
(dp3418
g8
g9
(g10
(I0
tp3419
g12
tp3420
Rp3421
(I1
(I4
tp3422
g19
I00
S'8\xb8\x0fB\x06p\xb8AjMBA\xb13\x07@'
p3423
tp3424
bsg24
g25
(g19
S'_\x98[A'
p3425
tp3426
Rp3427
sg12
g9
(g10
(I0
tp3428
g12
tp3429
Rp3430
(I1
(I4
tp3431
g19
I00
S'\xf2}%?Y\xa3\x85@s\xd7\xb8A\x1e\xa5\x16C'
p3432
tp3433
bsg35
g25
(g19
S'\x00\x00\xaeB'
p3434
tp3435
Rp3436
sg39
g3415
sg40
g41
(F-4.833000183105469
F10.802998542785645
tp3437
Rp3438
sg44
g41
(F-7.9120001792907715
F7.754000186920166
tp3439
Rp3440
sg47
g25
(g19
S'\x00\x00\xaeB'
p3441
tp3442
Rp3443
sbsS'Cd+2'
p3444
g2
(g3
g4
Ntp3445
Rp3446
(dp3447
g8
g9
(g10
(I0
tp3448
g12
tp3449
Rp3450
(I1
(I4
tp3451
g19
I00
S'\x116\x99A+\x07\x8aA\xba\x14\x8f@\x00\x00\x00\x00'
p3452
tp3453
bsg24
g25
(g19
S'\xe1\xd1\xa3@'
p3454
tp3455
Rp3456
sg12
g9
(g10
(I0
tp3457
g12
tp3458
Rp3459
(I1
(I4
tp3460
g19
I00
S'k\x11\x19?\xf2\xcd\xd9@M\x04\xa2A\x00\x00\x00\x00'
p3461
tp3462
bsg35
g25
(g19
S'\x00\x00@B'
p3463
tp3464
Rp3465
sg39
g3444
sg40
g41
(F-0.07900000363588333
F4.6529998779296875
tp3466
Rp3467
sg44
g41
(F-1.0049999952316284
F1.2020000219345093
tp3468
Rp3469
sg47
g25
(g19
S'\x00\x008B'
p3470
tp3471
Rp3472
sbsS'Np+6'
p3473
g2
(g3
g4
Ntp3474
Rp3475
(dp3476
g8
g9
(g10
(I0
tp3477
g12
tp3478
Rp3479
(I1
(I4
tp3480
g19
I00
S'\xed\r\x0cB,\xd4\xb5A\xe36fA8\xdb\xe0?'
p3481
tp3482
bsg24
g25
(g19
S'\xd9\xceQA'
p3483
tp3484
Rp3485
sg12
g9
(g10
(I0
tp3486
g12
tp3487
Rp3488
(I1
(I4
tp3489
g19
I00
S'`\xc8\xfa>C\xe73@\xaeGEA\xcaC\xb5A'
p3490
tp3491
bsg35
g25
(g19
S'\x00\x00\xbaB'
p3492
tp3493
Rp3494
sg39
g3473
sg40
g41
(F-5.5289998054504395
F13.967000007629395
tp3495
Rp3496
sg44
g41
(F-11.157999992370605
F4.1479997634887695
tp3497
Rp3498
sg47
g25
(g19
S'\x00\x00\xaeB'
p3499
tp3500
Rp3501
sbsS'Rb+1'
p3502
g2
(g3
g4
Ntp3503
Rp3504
(dp3505
g8
g9
(g10
(I0
tp3506
g12
tp3507
Rp3508
(I1
(I4
tp3509
g19
I00
S'\x1e\xa7\x8cA\x15\x1d\xf5@<\xbd\xbc@_\x072@'
p3510
tp3511
bsg24
g25
(g19
S';\x01\x05@'
p3512
tp3513
Rp3514
sg12
g9
(g10
(I0
tp3515
g12
tp3516
Rp3517
(I1
(I4
tp3518
g19
I00
S'\x13a\xdb?0\xbblA\xaf%$>k\xab\xf9A'
p3519
tp3520
bsg35
g25
(g19
S'\x00\x00\x14B'
p3521
tp3522
Rp3523
sg39
g3502
sg40
g41
(F-0.5740000009536743
F1.6080000400543213
tp3524
Rp3525
sg44
g41
(F-1.0440000295639038
F2.9730000495910645
tp3526
Rp3527
sg47
g25
(g19
S'\x00\x00\x10B'
p3528
tp3529
Rp3530
sbsS'Hg+2'
p3531
g2
(g3
g4
Ntp3532
Rp3533
(dp3534
g8
g9
(g10
(I0
tp3535
g12
tp3536
Rp3537
(I1
(I4
tp3538
g19
I00
S'G\x83\xecA\xe1z\x90A\xfeeMA\x97\xc5\xdc@'
p3539
tp3540
bsg24
g25
(g19
S'_\x07*A'
p3541
tp3542
Rp3543
sg12
g9
(g10
(I0
tp3544
g12
tp3545
Rp3546
(I1
(I4
tp3547
g19
I00
S'\x16\x13\x9b?\xf2\xcd\xe1@.\xc9\x91>P\xfc\xa5A'
p3548
tp3549
bsg35
g25
(g19
S'\x00\x00\xa0B'
p3550
tp3551
Rp3552
sg39
g3531
sg40
g41
(F-4.989999771118164
F7.685999870300293
tp3553
Rp3554
sg44
g41
(F-3.0840001106262207
F9.222999572753906
tp3555
Rp3556
sg47
g25
(g19
S'\x00\x00\x9cB'
p3557
tp3558
Rp3559
sbsS'Fe'
p3560
g2
(g3
g4
Ntp3561
Rp3562
(dp3563
g8
g9
(g10
(I0
tp3564
g12
tp3565
Rp3566
(I1
(I4
tp3567
g19
I00
S'\xdfO<A\x00o\xeb@\xbaka@\xee|\x13@'
p3568
tp3569
bsg24
g25
(g19
S'$\xb9\x84?'
p3570
tp3571
Rp3572
sg12
g9
(g10
(I0
tp3573
g12
tp3574
Rp3575
(I1
(I4
tp3576
g19
I00
S'\xeeZ\x98@RI\x9d>\xf0\xa7uA\xd1\xc2\x99B'
p3577
tp3578
bsg35
g25
(g19
S'\x00\x00\xd0A'
p3579
tp3580
Rp3581
sg39
g3560
sg40
g41
(F-1.1790000200271606
F3.2039999961853027
tp3582
Rp3583
sg44
g41
(F0.3009999990463257
F0.8450000286102295
tp3584
Rp3585
sg47
g25
(g19
S'\x00\x00\xd0A'
p3586
tp3587
Rp3588
sbsS'Hg+1'
p3589
g2
(g3
g4
Ntp3590
Rp3591
(dp3592
g8
g9
(g10
(I0
tp3593
g12
tp3594
Rp3595
(I1
(I4
tp3596
g19
I00
S'\xb2\xae\xc8Ax\xfa\x93A=\x1b\x87A\xdbm\xcf@'
p3597
tp3598
bsg24
g25
(g19
S'\xf8S@A'
p3599
tp3600
Rp3601
sg12
g9
(g10
(I0
tp3602
g12
tp3603
Rp3604
(I1
(I4
tp3605
g19
I00
S'\xa7\x91\xb2?g\xd5\xf4@q\x02\xe3>B\xcf\xe1A'
p3606
tp3607
bsg35
g25
(g19
S'\x00\x00\xa0B'
p3608
tp3609
Rp3610
sg39
g3589
sg40
g41
(F-4.989999771118164
F7.685999870300293
tp3611
Rp3612
sg44
g41
(F-3.0840001106262207
F9.222999572753906
tp3613
Rp3614
sg47
g25
(g19
S'\x00\x00\x9eB'
p3615
tp3616
Rp3617
sbsS'Eu+3'
p3618
g2
(g3
g4
Ntp3619
Rp3620
(dp3621
g8
g9
(g10
(I0
tp3622
g12
tp3623
Rp3624
(I1
(I4
tp3625
g19
I00
S'b\xff\xbdA\xfa\xfe\xa2AI\x9d=A@\xf6P@'
p3626
tp3627
bsg24
g25
(g19
S'^dB?'
p3628
tp3629
Rp3630
sg12
g9
(g10
(I0
tp3631
g12
tp3632
Rp3633
(I1
(I4
tp3634
g19
I00
S"\xc0>\x0e@\xe3\xdf'>\xdb\xf94A\t\xf9\xb7A"
p3635
tp3636
bsg35
g25
(g19
S'\x00\x00|B'
p3637
tp3638
Rp3639
sg39
g3618
sg40
g41
(F-7.7179999351501465
F11.276000022888184
tp3640
Rp3641
sg44
g41
(F-0.5419999957084656
F3.6689999103546143
tp3642
Rp3643
sg47
g25
(g19
S'\x00\x00pB'
p3644
tp3645
Rp3646
sbsS'Eu+2'
p3647
g2
(g3
g4
Ntp3648
Rp3649
(dp3650
g8
g9
(g10
(I0
tp3651
g12
tp3652
Rp3653
(I1
(I4
tp3654
g19
I00
S'\xe7\x0c\xc0Ak\x9a\x9fA\xba\xda<A\xe5\xd5w@'
p3655
tp3656
bsg24
g25
(g19
S'\xf3\x93\xae?'
p3657
tp3658
Rp3659
sg12
g9
(g10
(I0
tp3660
g12
tp3661
Rp3662
(I1
(I4
tp3663
g19
I00
S'\xf7\xc7\x11@\xd9\xb11>\xec\xc09A\xf3\x1f\xd4A'
p3664
tp3665
bsg35
g25
(g19
S'\x00\x00|B'
p3666
tp3667
Rp3668
sg39
g3647
sg40
g41
(F-7.7179999351501465
F11.276000022888184
tp3669
Rp3670
sg44
g41
(F-0.5419999957084656
F3.6689999103546143
tp3671
Rp3672
sg47
g25
(g19
S'\x00\x00tB'
p3673
tp3674
Rp3675
sbsS'Co+3'
p3676
g2
(g3
g4
Ntp3677
Rp3678
(dp3679
g8
g9
(g10
(I0
tp3680
g12
tp3681
Rp3682
(I1
(I4
tp3683
g19
I00
S'rh%A"7\xfc@\x0c\x93\x98@U\xc09?'
p3684
tp3685
bsg24
g25
(g19
S'\x04\xc6\x92>'
p3686
tp3687
Rp3688
sg12
g9
(g10
(I0
tp3689
g12
tp3690
Rp3691
(I1
(I4
tp3692
g19
I00
S'\\8z@bet>{\xb1\x05A\xf5\xca\x92A'
p3693
tp3694
bsg35
g25
(g19
S'\x00\x00\xd8A'
p3695
tp3696
Rp3697
sg39
g3676
sg40
g41
(F-2.4639999866485596
F3.6080000400543213
tp3698
Rp3699
sg44
g41
(F0.29899999499320984
F0.9729999899864197
tp3700
Rp3701
sg47
g25
(g19
S'\x00\x00\xc0A'
p3702
tp3703
Rp3704
sbsS'Co+2'
p3705
g2
(g3
g4
Ntp3706
Rp3707
(dp3708
g8
g9
(g10
(I0
tp3709
g12
tp3710
Rp3711
(I1
(I4
tp3712
g19
I00
S'q\xac3A\xf4l\xec@X\xa8\x97@\xfd\xf65?'
p3713
tp3714
bsg24
g25
(g19
S'\xc4\xb1n?'
p3715
tp3716
Rp3717
sg12
g9
(g10
(I0
tp3718
g12
tp3719
Rp3720
(I1
(I4
tp3721
g19
I00
S'o\xf0\x83@:\x92\x8b>\xa7\xe8#A<,\xcdA'
p3722
tp3723
bsg35
g25
(g19
S'\x00\x00\xd8A'
p3724
tp3725
Rp3726
sg39
g3705
sg40
g41
(F-2.4639999866485596
F3.6080000400543213
tp3727
Rp3728
sg44
g41
(F0.29899999499320984
F0.9729999899864197
tp3729
Rp3730
sg47
g25
(g19
S'\x00\x00\xc8A'
p3731
tp3732
Rp3733
sbsS'Ir+4'
p3734
g2
(g3
g4
Ntp3735
Rp3736
(dp3737
g8
g9
(g10
(I0
tp3738
g12
tp3739
Rp3740
(I1
(I4
tp3741
g19
I00
S'z\xa5\xf5A\xb7\xd1xA\xbb\xb8cA\xcf,\xb1@'
p3742
tp3743
bsg24
g25
(g19
S'\xd2\xfb\xde@'
p3744
tp3745
Rp3746
sg12
g9
(g10
(I0
tp3747
g12
tp3748
Rp3749
(I1
(I4
tp3750
g19
I00
S'\xd9\x94\xa7?\xd9\x08\xd7@\x1cD+>\xc6\xed\x8bA'
p3751
tp3752
bsg35
g25
(g19
S'\x00\x00\x9aB'
p3753
tp3754
Rp3755
sg39
g3734
sg40
g41
(F-5.390999794006348
F6.565999984741211
tp3756
Rp3757
sg44
g41
(F-2.065999984741211
F7.989999771118164
tp3758
Rp3759
sg47
g25
(g19
S'\x00\x00\x92B'
p3760
tp3761
Rp3762
sbsS'B'
p3763
g2
(g3
g4
Ntp3764
Rp3765
(dp3766
g8
g9
(g10
(I0
tp3767
g12
tp3768
Rp3769
(I1
(I4
tp3770
g19
I00
S'\xee|\x03@\xa3\x92\xaa?\xfd\x87\x8c?\xd8\xf04?'
p3771
tp3772
bsg24
g25
(g19
S'9\xd6E\xbe'
p3773
tp3774
Rp3775
sg12
g9
(g10
(I0
tp3776
g12
tp3777
Rp3778
(I1
(I4
tp3779
g19
I00
S'}\xbf\xb9A!\xb0\x82?2fqB\xce\xaa\x0f>'
p3780
tp3781
bsg35
g25
(g19
S'\x00\x00\xa0@'
p3782
tp3783
Rp3784
sg39
g3763
sg40
g41
(F0.00800000037997961
F0.004000000189989805
tp3785
Rp3786
sg44
g41
(F0.0
F0.0010000000474974513
tp3787
Rp3788
sg47
g25
(g19
S'\x00\x00\xa0@'
p3789
tp3790
Rp3791
sbsS'F'
p3792
g2
(g3
g4
Ntp3793
Rp3794
(dp3795
g8
g9
(g10
(I0
tp3796
g12
tp3797
Rp3798
(I1
(I4
tp3799
g19
I00
S'A\x82b@l\t)@\x0e-\xc2?C\x1c\x83?'
p3800
tp3801
bsg24
g25
(g19
S'\x96!\x8e>'
p3802
tp3803
Rp3804
sg12
g9
(g10
(I0
tp3805
g12
tp3806
Rp3807
(I1
(I4
tp3808
g19
I00
S'\x1e\x85$A\xbak\x89@T\xe3\x85>I.\xd1A'
p3809
tp3810
bsg35
g25
(g19
S'\x00\x00\x10A'
p3811
tp3812
Rp3813
sg39
g3792
sg40
g41
(F0.0689999982714653
F0.05299999937415123
tp3814
Rp3815
sg44
g41
(F0.014000000432133675
F0.009999999776482582
tp3816
Rp3817
sg47
g25
(g19
S'\x00\x00\x10A'
p3818
tp3819
Rp3820
sbsS'Sr'
p3821
g2
(g3
g4
Ntp3822
Rp3823
(dp3824
g8
g9
(g10
(I0
tp3825
g12
tp3826
Rp3827
(I1
(I4
tp3828
g19
I00
S'\xc8\x87\x8cA*\x18\x1dA\x06\x81\xad@s\xd7*@'
p3829
tp3830
bsg24
g25
(g19
S'\xdch @'
p3831
tp3832
Rp3833
sg12
g9
(g10
(I0
tp3834
g12
tp3835
Rp3836
(I1
(I4
tp3837
g19
I00
S'\x1d8\xc7?\xaf\x94aA\xc3d*>B`\x04C'
p3838
tp3839
bsg35
g25
(g19
S'\x00\x00\x18B'
p3840
tp3841
Rp3842
sg39
g3821
sg40
g41
(F-0.4650000035762787
F1.8200000524520874
tp3843
Rp3844
sg44
g41
(F-1.656999945640564
F3.2639999389648438
tp3845
Rp3846
sg47
g25
(g19
S'\x00\x00\x18B'
p3847
tp3848
Rp3849
sbsS'Ce+4'
p3850
g2
(g3
g4
Ntp3851
Rp3852
(dp3853
g8
g9
(g10
(I0
tp3854
g12
tp3855
Rp3856
(I1
(I4
tp3857
g19
I00
S'\x87\x96\xa2A~\x8c\x9eA\t\xf9AA\x91\r\x14>'
p3858
tp3859
bsg24
g25
(g19
S'\x1a\xc0\xcb?'
p3860
tp3861
Rp3862
sg12
g9
(g10
(I0
tp3863
g12
tp3864
Rp3865
(I1
(I4
tp3866
g19
I00
S"\xc63*@7\x1a`>\x86\xc9|A'\xf1xB"
p3867
tp3868
bsg35
g25
(g19
S'\x00\x00hB'
p3869
tp3870
Rp3871
sg39
g3850
sg40
g41
(F-2.1700000762939453
F9.64799976348877
tp3872
Rp3873
sg44
g41
(F-0.5640000104904175
F2.631999969482422
tp3874
Rp3875
sg47
g25
(g19
S'\x00\x00XB'
p3876
tp3877
Rp3878
sbsS'N'
p3879
g2
(g3
g4
Ntp3880
Rp3881
(dp3882
g8
g9
(g10
(I0
tp3883
g12
tp3884
Rp3885
(I1
(I4
tp3886
g19
I00
S'{\x83?@\x10\xe9\x7f@\x00\x00\x00\x00\x00\x00\x00\x00'
p3887
tp3888
bsg24
g25
(g19
S'\x00\x00\x00\x00'
p3889
tp3890
Rp3891
sg12
g9
(g10
(I0
tp3892
g12
tp3893
Rp3894
(I1
(I4
tp3895
g19
I00
S'G\x03\xcbA\x8e\x06`@\x00\x00\x00\x00\x00\x00\x00\x00'
p3896
tp3897
bsg35
g25
(g19
S'\x00\x00\xe0@'
p3898
tp3899
Rp3900
sg39
g3879
sg40
g41
(F0.0
F0.0
tp3901
Rp3902
sg44
g41
(F0.0
F0.0
tp3903
Rp3904
sg47
g25
(g19
S'\x00\x00\xe0@'
p3905
tp3906
Rp3907
sbsS'Kr'
p3908
g2
(g3
g4
Ntp3909
Rp3910
(dp3911
g8
g9
(g10
(I0
tp3912
g12
tp3913
Rp3914
(I1
(I4
tp3915
g19
I00
S'\x10\xd8\x8aA\xb1P\xd7@\xde\x93\xb1@ffb@'
p3916
tp3917
bsg24
g25
(g19
S'\xcd\xcc4@'
p3918
tp3919
Rp3920
sg12
g9
(g10
(I0
tp3921
g12
tp3922
Rp3923
(I1
(I4
tp3924
g19
I00
S'~\x1d\xf8?\x97\x7f\x84A\xc2\x86g>\xbc\x96\x1dB'
p3925
tp3926
bsg35
g25
(g19
S'\x00\x00\x10B'
p3927
tp3928
Rp3929
sg39
g3908
sg40
g41
(F-0.6650000214576721
F1.4390000104904175
tp3930
Rp3931
sg44
g41
(F-0.6520000100135803
F2.7130000591278076
tp3932
Rp3933
sg47
g25
(g19
S'\x00\x00\x10B'
p3934
tp3935
Rp3936
sbsS'Si'
p3937
g2
(g3
g4
Ntp3938
Rp3939
(dp3940
g8
g9
(g10
(I0
tp3941
g12
tp3942
Rp3943
(I1
(I4
tp3944
g19
I00
S'\xf8S\xc9@[BB@\xd4\x9a\xfe?}?\xc5?'
p3945
tp3946
bsg24
g25
(g19
S'u\x02\x92?'
p3947
tp3948
Rp3949
sg12
g9
(g10
(I0
tp3950
g12
tp3951
Rp3952
(I1
(I4
tp3953
g19
I00
S'\x06\x12\x1c@\xb5U\x01B-\xb2-?,c\xa3B'
p3954
tp3955
bsg35
g25
(g19
S'\x00\x00`A'
p3956
tp3957
Rp3958
sg39
g3937
sg40
g41
(F0.24400000274181366
F0.33000001311302185
tp3959
Rp3960
sg44
g41
(F0.07199999690055847
F0.07100000232458115
tp3961
Rp3962
sg47
g25
(g19
S'\x00\x00`A'
p3963
tp3964
Rp3965
sbsS'Sn'
p3966
g2
(g3
g4
Ntp3967
Rp3968
(dp3969
g8
g9
(g10
(I0
tp3970
g12
tp3971
Rp3972
(I1
(I4
tp3973
g19
I00
S'\xde\x82\x99A\xd3\xcd\x98A\x08\xac\x8e@\xdc\xd7\x1d@'
p3974
tp3975
bsg24
g25
(g19
S'\xf7\x06\x99@'
p3976
tp3977
Rp3978
sg12
g9
(g10
(I0
tp3979
g12
tp3980
Rp3981
(I1
(I4
tp3982
g19
I00
S'\xd1\x91\xba@)\xcb\x00?\x90 \xd7A\t\xea\xa7B'
p3983
tp3984
bsg35
g25
(g19
S'\x00\x00HB'
p3985
tp3986
Rp3987
sg39
g3966
sg40
g41
(F-0.1940000057220459
F5.459000110626221
tp3988
Rp3989
sg44
g41
(F-0.8730000257492065
F1.4240000247955322
tp3990
Rp3991
sg47
g25
(g19
S'\x00\x00HB'
p3992
tp3993
Rp3994
sbsS'Sm'
p3995
g2
(g3
g4
Ntp3996
Rp3997
(dp3998
g8
g9
(g10
(I0
tp3999
g12
tp4000
Rp4001
(I1
(I4
tp4002
g19
I00
S'\x9a\x08\xc0A\nh\x9bA\x9a\x08WA\xb8X9@'
p4003
tp4004
bsg24
g25
(g19
S'\x94j\r@'
p4005
tp4006
Rp4007
sg12
g9
(g10
(I0
tp4008
g12
tp4009
Rp4010
(I1
(I4
tp4011
g19
I00
S'_A\x1e@s*I>\xc3dfA\xcb\x01\x00C'
p4012
tp4013
bsg35
g25
(g19
S'\x00\x00xB'
p4014
tp4015
Rp4016
sg39
g3995
sg40
g41
(F-5.696000099182129
F12.319999694824219
tp4017
Rp4018
sg44
g41
(F-0.5329999923706055
F3.441999912261963
tp4019
Rp4020
sg47
g25
(g19
S'\x00\x00xB'
p4021
tp4022
Rp4023
sbsS'V'
p4024
g2
(g3
g4
Ntp4025
Rp4026
(dp4027
g8
g9
(g10
(I0
tp4028
g12
tp4029
Rp4030
(I1
(I4
tp4031
g19
I00
S'\xec\xc0$A6<\xeb@\xcc\x7f\x04@\x87\xa7\x03@'
p4032
tp4033
bsg24
g25
(g19
S'\xaf%\x9c?'
p4034
tp4035
Rp4036
sg12
g9
(g10
(I0
tp4037
g12
tp4038
Rp4039
(I1
(I4
tp4040
g19
I00
S'\xd0\xb3\xdb@\x12\x83\xe0>\x80&\xd7A\xbc\xf4\xccB'
p4041
tp4042
bsg35
g25
(g19
S'\x00\x00\xb8A'
p4043
tp4044
Rp4045
sg39
g4024
sg40
g41
(F0.03500000014901161
F2.109999895095825
tp4046
Rp4047
sg44
g41
(F0.2669999897480011
F0.5299999713897705
tp4048
Rp4049
sg47
g25
(g19
S'\x00\x00\xb8A'
p4050
tp4051
Rp4052
sbsS'Sc'
p4053
g2
(g3
g4
Ntp4054
Rp4055
(dp4056
g8
g9
(g10
(I0
tp4057
g12
tp4058
Rp4059
(I1
(I4
tp4060
g19
I00
S'%\x06\x13A\xd6\xc5\xeb@\x03\t\xd2?m\xe7\xbb?'
p4061
tp4062
bsg24
g25
(g19
S'x\x9c\xaa?'
p4063
tp4064
Rp4065
sg12
g9
(g10
(I0
tp4066
g12
tp4067
Rp4068
(I1
(I4
tp4069
g19
I00
S'>W\x10A\x93\xa9\x12?\xa6\x1b\x08C\x93iMB'
p4070
tp4071
bsg35
g25
(g19
S'\x00\x00\xa8A'
p4072
tp4073
Rp4074
sg39
g4053
sg40
g41
(F0.2849999964237213
F1.5329999923706055
tp4075
Rp4076
sg44
g41
(F0.22599999606609344
F0.3720000088214874
tp4077
Rp4078
sg47
g25
(g19
S'\x00\x00\xa8A'
p4079
tp4080
Rp4081
sbsS'Sb'
p4082
g2
(g3
g4
Ntp4083
Rp4084
(dp4085
g8
g9
(g10
(I0
tp4086
g12
tp4087
Rp4088
(I1
(I4
tp4089
g19
I00
S'h"\x9dA/]\x98A\xec/\xa1@[\xb1+@'
p4090
tp4091
bsg24
g25
(g19
S'\xa7\xe8\x92@'
p4092
tp4093
Rp4094
sg12
g9
(g10
(I0
tp4095
g12
tp4096
Rp4097
(I1
(I4
tp4098
g19
I00
S't\xb5\xa9@\xdf\xe0\xeb>[B\xdfA\xa4\x90\x96B'
p4099
tp4100
bsg35
g25
(g19
S'\x00\x00LB'
p4101
tp4102
Rp4103
sg39
g4082
sg40
g41
(F-0.28700000047683716
F5.894000053405762
tp4104
Rp4105
sg44
g41
(F-0.8159999847412109
F1.5460000038146973
tp4106
Rp4107
sg47
g25
(g19
S'\x00\x00LB'
p4108
tp4109
Rp4110
sbsS'Fe+2'
p4111
g2
(g3
g4
Ntp4112
Rp4113
(dp4114
g8
g9
(g10
(I0
tp4115
g12
tp4116
Rp4117
(I1
(I4
tp4118
g19
I00
S'\xac\xad0A\xcf\xf7\xeb@\xa5N\x84@\x93:\xe1>'
p4119
tp4120
bsg24
g25
(g19
S'\xd9=\x81?'
p4121
tp4122
Rp4123
sg12
g9
(g10
(I0
tp4124
g12
tp4125
Rp4126
(I1
(I4
tp4127
g19
I00
S'\xee\xeb\x94@HP\x9c>\xa4\xdf@AH?\xfaA'
p4128
tp4129
bsg35
g25
(g19
S'\x00\x00\xd0A'
p4130
tp4131
Rp4132
sg39
g4111
sg40
g41
(F-1.1790000200271606
F3.2039999961853027
tp4133
Rp4134
sg44
g41
(F0.3009999990463257
F0.8450000286102295
tp4135
Rp4136
sg47
g25
(g19
S'\x00\x00\xc0A'
p4137
tp4138
Rp4139
sbsS'Fe+3'
p4140
g2
(g3
g4
Ntp4141
Rp4142
(dp4143
g8
g9
(g10
(I0
tp4144
g12
tp4145
Rp4146
(I1
(I4
tp4147
g19
I00
S'\x89\xd22A\x92\\\xec@gDY@tF\x94='
p4148
tp4149
bsg24
g25
(g19
S'\xcc\x7fx?'
p4150
tp4151
Rp4152
sg12
g9
(g10
(I0
tp4153
g12
tp4154
Rp4155
(I1
(I4
tp4156
g19
I00
S'\x9f\xab\x93@#\xdb\x99>3\xc4:A\xf59\x1aB'
p4157
tp4158
bsg35
g25
(g19
S'\x00\x00\xd0A'
p4159
tp4160
Rp4161
sg39
g4140
sg40
g41
(F-1.1790000200271606
F3.2039999961853027
tp4162
Rp4163
sg44
g41
(F0.3009999990463257
F0.8450000286102295
tp4164
Rp4165
sg47
g25
(g19
S'\x00\x00\xb8A'
p4166
tp4167
Rp4168
sbsS'Se'
p4169
g2
(g3
g4
Ntp4170
Rp4171
(dp4172
g8
g9
(g10
(I0
tp4173
g12
tp4174
Rp4175
(I1
(I4
tp4176
g19
I00
S':\x01\x88A*:\xba@EG~@mV\x8b@'
p4177
tp4178
bsg24
g25
(g19
S'N\xd15@'
p4179
tp4180
Rp4181
sg12
g9
(g10
(I0
tp4182
g12
tp4183
Rp4184
(I1
(I4
tp4185
g19
I00
S'*:\x1a@:\x92\x8b>\x92\xcbsA\xe4C/B'
p4186
tp4187
bsg35
g25
(g19
S'\x00\x00\x08B'
p4188
tp4189
Rp4190
sg39
g4169
sg40
g41
(F-0.8790000081062317
F1.1390000581741333
tp4191
Rp4192
sg44
g41
(F-0.17800000309944153
F2.2230000495910645
tp4193
Rp4194
sg47
g25
(g19
S'\x00\x00\x08B'
p4195
tp4196
Rp4197
sbsS'Sb+5'
p4198
g2
(g3
g4
Ntp4199
Rp4200
(dp4201
g8
g9
(g10
(I0
tp4202
g12
tp4203
Rp4204
(I1
(I4
tp4205
g19
I00
S'\xb0\xf2\x9eA\xd9=\x98A\xe4f\x1a@\x00\x00\x00\x00'
p4206
tp4207
bsg24
g25
(g19
S'\x06*\x96@'
p4208
tp4209
Rp4210
sg12
g9
(g10
(I0
tp4211
g12
tp4212
Rp4213
(I1
(I4
tp4214
g19
I00
S'\\Z\xae@(\x9a\xef>\xb0\x03bA\x00\x00\x00\x00'
p4215
tp4216
bsg35
g25
(g19
S'\x00\x00LB'
p4217
tp4218
Rp4219
sg39
g4198
sg40
g41
(F-0.28700000047683716
F5.894000053405762
tp4220
Rp4221
sg44
g41
(F-0.8159999847412109
F1.5460000038146973
tp4222
Rp4223
sg47
g25
(g19
S'\x00\x008B'
p4224
tp4225
Rp4226
sbsS'Ag+1'
p4227
g2
(g3
g4
Ntp4228
Rp4229
(dp4230
g8
g9
(g10
(I0
tp4231
g12
tp4232
Rp4233
(I1
(I4
tp4234
g19
I00
S'\x19s\x99A\xe7\x8c\x7fA\xc1\xca\xa8@\xb2\x0e\xb7>'
p4235
tp4236
bsg24
g25
(g19
S'.\xe7\xa6@'
p4237
tp4238
Rp4239
sg12
g9
(g10
(I0
tp4240
g12
tp4241
Rp4242
(I1
(I4
tp4243
g19
I00
S'\xfdk%?\x8e\x1e\xe6@]\xdc\xadA\xba:\x84B'
p4244
tp4245
bsg35
g25
(g19
S'\x00\x00<B'
p4246
tp4247
Rp4248
sg39
g4227
sg40
g41
(F-0.05999999865889549
F4.2820000648498535
tp4249
Rp4250
sg44
g41
(F-1.0850000381469727
F1.1009999513626099
tp4251
Rp4252
sg47
g25
(g19
S'\x00\x008B'
p4253
tp4254
Rp4255
sbsS'Pb'
p4256
g2
(g3
g4
Ntp4257
Rp4258
(dp4259
g8
g9
(g10
(I0
tp4260
g12
tp4261
Rp4262
(I1
(I4
tp4263
g19
I00
S'\\~\xf8A\xea\x04QA7\x89\x93A\xf7\x06\xbf@'
p4264
tp4265
bsg24
g25
(g19
S'\xbc\x96VA'
p4266
tp4267
Rp4268
sg12
g9
(g10
(I0
tp4269
g12
tp4270
Rp4271
(I1
(I4
tp4272
g19
I00
S'\xf2\xb00?\xeb\xe2\x16@T\xe3\tA\x17\x08=B'
p4273
tp4274
bsg35
g25
(g19
S'\x00\x00\xa4B'
p4275
tp4276
Rp4277
sg39
g4256
sg40
g41
(F-4.817999839782715
F8.505000114440918
tp4278
Rp4279
sg44
g41
(F-4.132999897003174
F10.10200023651123
tp4280
Rp4281
sg47
g25
(g19
S'\x00\x00\xa4B'
p4282
tp4283
Rp4284
sbsS'Ag+2'
p4285
g2
(g3
g4
Ntp4286
Rp4287
(dp4288
g8
g9
(g10
(I0
tp4289
g12
tp4290
Rp4291
(I1
(I4
tp4292
g19
I00
S'|P\x99A\xfd\xf6\x81Aj\xde\x8b@\x00\x00\x00\x00'
p4293
tp4294
bsg24
g25
(g19
S'j\xd9\xa6@'
p4295
tp4296
Rp4297
sg12
g9
(g10
(I0
tp4298
g12
tp4299
Rp4300
(I1
(I4
tp4301
g19
I00
S'\xdcH%? \xef\xe5@\xf2A\xabA\x00\x00\x00\x00'
p4302
tp4303
bsg35
g25
(g19
S'\x00\x00<B'
p4304
tp4305
Rp4306
sg39
g4285
sg40
g41
(F-0.05999999865889549
F4.2820000648498535
tp4307
Rp4308
sg44
g41
(F-1.0850000381469727
F1.1009999513626099
tp4309
Rp4310
sg47
g25
(g19
S'\x00\x004B'
p4311
tp4312
Rp4313
sbsS'Co'
p4314
g2
(g3
g4
Ntp4315
Rp4316
(dp4317
g8
g9
(g10
(I0
tp4318
g12
tp4319
Rp4320
(I1
(I4
tp4321
g19
I00
S'\xac\x8bDA\xa7\xe8\xea@\xda\x1b\x80@\xbdR\x16@'
p4322
tp4323
bsg24
g25
(g19
S'\xaa\x82\x81?'
p4324
tp4325
Rp4326
sg12
g9
(g10
(I0
tp4327
g12
tp4328
Rp4329
(I1
(I4
tp4330
g19
I00
S'c\xee\x88@r\x8a\x8e>\x0c\x93XA\xa1V\x8eB'
p4331
tp4332
bsg35
g25
(g19
S'\x00\x00\xd8A'
p4333
tp4334
Rp4335
sg39
g4314
sg40
g41
(F-2.4639999866485596
F3.6080000400543213
tp4336
Rp4337
sg44
g41
(F0.29899999499320984
F0.9729999899864197
tp4338
Rp4339
sg47
g25
(g19
S'\x00\x00\xd8A'
p4340
tp4341
Rp4342
sbsS'Br-1'
p4343
g2
(g3
g4
Ntp4344
Rp4345
(dp4346
g8
g9
(g10
(I0
tp4347
g12
tp4348
Rp4349
(I1
(I4
tp4350
g19
I00
S'\xd8_\x89A}\xae\xca@\xadi\xb2@r\x8an@'
p4351
tp4352
bsg24
g25
(g19
S'\xcc]K@'
p4353
tp4354
Rp4355
sg12
g9
(g10
(I0
tp4356
g12
tp4357
Rp4358
(I1
(I4
tp4359
g19
I00
S'w-\r@\x0e\xad\x9aA\xc5\xfe\x92>/\x9dhB'
p4360
tp4361
bsg35
g25
(g19
S'\x00\x00\x0cB'
p4362
tp4363
Rp4364
sg39
g4343
sg40
g41
(F-0.7670000195503235
F1.2829999923706055
tp4365
Rp4366
sg44
g41
(F-0.37400001287460327
F2.4560000896453857
tp4367
Rp4368
sg47
g25
(g19
S'\x00\x00\x10B'
p4369
tp4370
Rp4371
sbsS'Cl'
p4372
g2
(g3
g4
Ntp4373
Rp4374
(dp4375
g8
g9
(g10
(I0
tp4376
g12
tp4377
Rp4378
(I1
(I4
tp4379
g19
I00
S'\xcc]7A\xe9H\xe6@\xe0-\xc8@\xbe\x9f\xd2?'
p4380
tp4381
bsg24
g25
(g19
S'\x1c\xeb\x18\xc1'
p4382
tp4383
Rp4384
sg12
g9
(g10
(I0
tp4385
g12
tp4386
Rp4387
(I1
(I4
tp4388
g19
I00
S"\xc3d*<\x0bF\x95?\xbb'\x94A\x15\x1d?B"
p4389
tp4390
bsg35
g25
(g19
S'\x00\x00\x88A'
p4391
tp4392
Rp4393
sg39
g4372
sg40
g41
(F0.3479999899864197
F0.7020000219345093
tp4394
Rp4395
sg44
g41
(F0.13199999928474426
F0.1589999943971634
tp4396
Rp4397
sg47
g25
(g19
S'\x00\x00\x88A'
p4398
tp4399
Rp4400
sbsS'Ca'
p4401
g2
(g3
g4
Ntp4402
Rp4403
(dp4404
g8
g9
(g10
(I0
tp4405
g12
tp4406
Rp4407
(I1
(I4
tp4408
g19
I00
S'\x8e\x06\nA\xc3d\xec@\xd8\x81\xcb?h\xb3\x82?'
p4409
tp4410
bsg24
g25
(g19
S'G\x03\xb0?'
p4411
tp4412
Rp4413
sg12
g9
(g10
(I0
tp4414
g12
tp4415
Rp4416
(I1
(I4
tp4417
g19
I00
S"\xd7\x12'A5\xef(?.\x7f\xabB\xdfo2C"
p4418
tp4419
bsg35
g25
(g19
S'\x00\x00\xa0A'
p4420
tp4421
Rp4422
sg39
g4401
sg40
g41
(F0.3409999907016754
F1.2860000133514404
tp4423
Rp4424
sg44
g41
(F0.2029999941587448
F0.3059999942779541
tp4425
Rp4426
sg47
g25
(g19
S'\x00\x00\xa0A'
p4427
tp4428
Rp4429
sbsS'Ano'
p4430
g2
(g3
g4
Ntp4431
Rp4432
(dp4433
g8
g9
(g10
(I0
tp4434
g12
tp4435
Rp4436
(I1
(I4
tp4437
g19
I00
S'\x00\x00\x80?\x00\x00\x00\x00\x00\x00\x00\x00\x00\x00\x00\x00'
p4438
tp4439
bsg24
g25
(g19
S'\x00\x00\x00\x00'
p4440
tp4441
Rp4442
sg12
g9
(g10
(I0
tp4443
g12
tp4444
Rp4445
(I1
(I4
tp4446
g19
I00
S'\x00\x00\x00\x00\x00\x00\x00\x00\x00\x00\x00\x00\x00\x00\x00\x00'
p4447
tp4448
bsg35
g25
(g19
S'\x00\x00\x80?'
p4449
tp4450
Rp4451
sg39
g4430
sg40
g41
(F0.0
F1.0
tp4452
Rp4453
sg44
g41
(F0.0
F1.0
tp4454
Rp4455
sg47
g25
(g19
S'\x00\x00\x80?'
p4456
tp4457
Rp4458
sbsS'Zr+4'
p4459
g2
(g3
g4
Ntp4460
Rp4461
(dp4462
g8
g9
(g10
(I0
tp4463
g12
tp4464
Rp4465
(I1
(I4
tp4466
g19
I00
S'\x9bU\x91A2\xe6 AYn\x81?2w)\xc0'
p4467
tp4468
bsg24
g25
(g19
S'\xf4\xa1\x16A'
p4469
tp4470
Rp4471
sg12
g9
(g10
(I0
tp4472
g12
tp4473
Rp4474
(I1
(I4
tp4475
g19
I00
S'\x91~\x9b?p_"A\xdc\xd7\xacA\xd6s\xd2\xbd'
p4476
tp4477
bsg35
g25
(g19
S'\x00\x00 B'
p4478
tp4479
Rp4480
sg39
g4459
sg40
g41
(F-0.3140000104904175
F2.244999885559082
tp4481
Rp4482
sg44
g41
(F-2.9649999141693115
F0.5600000023841858
tp4483
Rp4484
sg47
g25
(g19
S'\x00\x00\x10B'
p4485
tp4486
Rp4487
sbsS'Ce'
p4488
g2
(g3
g4
Ntp4489
Rp4490
(dp4491
g8
g9
(g10
(I0
tp4492
g12
tp4493
Rp4494
(I1
(I4
tp4495
g19
I00
S"8V\xa9A\xf0'\x9eA\xec\x9e=A\xc0&U@"
p4496
tp4497
bsg24
g25
(g19
S'\xfdj\xee?'
p4498
tp4499
Rp4500
sg12
g9
(g10
(I0
tp4501
g12
tp4502
Rp4503
(I1
(I4
tp4504
g19
I00
S'\xec\xfa3@\xb2Gh>\xcc\xdd\x8cA\xdb9\xfeB'
p4505
tp4506
bsg35
g25
(g19
S'\x00\x00hB'
p4507
tp4508
Rp4509
sg39
g4488
sg40
g41
(F-2.1700000762939453
F9.64799976348877
tp4510
Rp4511
sg44
g41
(F-0.5640000104904175
F2.631999969482422
tp4512
Rp4513
sg47
g25
(g19
S'\x00\x00hB'
p4514
tp4515
Rp4516
sbsS'Cd'
p4517
g2
(g3
g4
Ntp4518
Rp4519
(dp4520
g8
g9
(g10
(I0
tp4521
g12
tp4522
Rp4523
(I1
(I4
tp4524
g19
I00
S"m\xc5\x99A\xbb'\x8dA\x83\xc0\x8e@\xd4+\xcd?"
p4525
tp4526
bsg24
g25
(g19
S'\x868\xa2@'
p4527
tp4528
Rp4529
sg12
g9
(g10
(I0
tp4530
g12
tp4531
Rp4532
(I1
(I4
tp4533
g19
I00
S'\xb57\x18?\xb5\x15\xdd@=\x9b\xc5A\n\xf7\xaeB'
p4534
tp4535
bsg35
g25
(g19
S'\x00\x00@B'
p4536
tp4537
Rp4538
sg39
g4517
sg40
g41
(F-0.07900000363588333
F4.6529998779296875
tp4539
Rp4540
sg44
g41
(F-1.0049999952316284
F1.2020000219345093
tp4541
Rp4542
sg47
g25
(g19
S'\x00\x00@B'
p4543
tp4544
Rp4545
sbsS'Lu'
p4546
g2
(g3
g4
Ntp4547
Rp4548
(dp4549
g8
g9
(g10
(I0
tp4550
g12
tp4551
Rp4552
(I1
(I4
tp4553
g19
I00
S'\xaf\x94\xe7Af\x88sA\x9a\x99qA\x1c\xd3m@'
p4554
tp4555
bsg24
g25
(g19
S'\xb0=\xff@'
p4556
tp4557
Rp4558
sg12
g9
(g10
(I0
tp4559
g12
tp4560
Rp4561
(I1
(I4
tp4562
g19
I00
S'\xd6n\xf3?V\xc3\x1fA\x1e\xa6\x85>\xdc\xa8\xa8B'
p4563
tp4564
bsg35
g25
(g19
S'\x00\x00\x8eB'
p4565
tp4566
Rp4567
sg39
g4546
sg40
g41
(F-7.132999897003174
F4.692999839782715
tp4568
Rp4569
sg44
g41
(F-0.9879999756813049
F5.857999801635742
tp4570
Rp4571
sg47
g25
(g19
S'\x00\x00\x8eB'
p4572
tp4573
Rp4574
sbsS'Cs'
p4575
g2
(g3
g4
Ntp4576
Rp4577
(dp4578
g8
g9
(g10
(I0
tp4579
g12
tp4580
Rp4581
(I1
(I4
tp4582
g19
I00
S'\x15\x1d\xa3A\x7f\xd9\x98A\x8d\x97*A\xfee\xbf?'
p4583
tp4584
bsg24
g25
(g19
S'\xebsU@'
p4585
tp4586
Rp4587
sg12
g9
(g10
(I0
tp4588
g12
tp4589
Rp4590
(I1
(I4
tp4591
g19
I00
S'\x7fjd@\x12\x14\x9f>k\x1a\xc3Al\xe7UC'
p4592
tp4593
bsg35
g25
(g19
S'\x00\x00\\B'
p4594
tp4595
Rp4596
sg39
g4575
sg40
g41
(F-1.0219999551773071
F7.9039998054504395
tp4597
Rp4598
sg44
g41
(F-0.6439999938011169
F2.11899995803833
tp4599
Rp4600
sg47
g25
(g19
S'\x00\x00\\B'
p4601
tp4602
Rp4603
sbsS'Cr'
p4604
g2
(g3
g4
Ntp4605
Rp4606
(dp4607
g8
g9
(g10
(I0
tp4608
g12
tp4609
Rp4610
(I1
(I4
tp4611
g19
I00
S'\xe6?*A\x83Q\xeb@j\xbcT@i\x00\xbf?'
p4612
tp4613
bsg24
g25
(g19
S'\x19s\x97?'
p4614
tp4615
Rp4616
sg12
g9
(g10
(I0
tp4617
g12
tp4618
Rp4619
(I1
(I4
tp4620
g19
I00
S'TR\xc3@9\xb4\xc8>\xce\x19\xa2A\xd4z\xc5B'
p4621
tp4622
bsg35
g25
(g19
S'\x00\x00\xc0A'
p4623
tp4624
Rp4625
sg39
g4604
sg40
g41
(F-0.1979999989271164
F2.443000078201294
tp4626
Rp4627
sg44
g41
(F0.2840000092983246
F0.6240000128746033
tp4628
Rp4629
sg47
g25
(g19
S'\x00\x00\xc0A'
p4630
tp4631
Rp4632
sbsS'Sn+4'
p4633
g2
(g3
g4
Ntp4634
Rp4635
(dp4636
g8
g9
(g10
(I0
tp4637
g12
tp4638
Rp4639
(I1
(I4
tp4640
g19
I00
S'fw\x97An\xb4\x9dA\xca\xc3Z@\t\x1b\x9e<'
p4641
tp4642
bsg24
g25
(g19
S'\xca\xc3z@'
p4643
tp4644
Rp4645
sg12
g9
(g10
(I0
tp4646
g12
tp4647
Rp4648
(I1
(I4
tp4649
g19
I00
S'\xb0r\xb8@\x04V\xee>\x12\x14`A\xf3\x1fB\xbf'
p4650
tp4651
bsg35
g25
(g19
S'\x00\x00HB'
p4652
tp4653
Rp4654
sg39
g4633
sg40
g41
(F-0.1940000057220459
F5.459000110626221
tp4655
Rp4656
sg44
g41
(F-0.8730000257492065
F1.4240000247955322
tp4657
Rp4658
sg47
g25
(g19
S'\x00\x008B'
p4659
tp4660
Rp4661
sbsS'Sn+2'
p4662
g2
(g3
g4
Ntp4663
Rp4664
(dp4665
g8
g9
(g10
(I0
tp4666
g12
tp4667
Rp4668
(I1
(I4
tp4669
g19
I00
S'\r\xe0\x98A;p\x98A\xd7\x12\x92@\x10X\xf9>'
p4670
tp4671
bsg24
g25
(g19
S"\xbb'\x99@"
p4672
tp4673
Rp4674
sg12
g9
(g10
(I0
tp4675
g12
tp4676
Rp4677
(I1
(I4
tp4678
g19
I00
S'\xee\xeb\x00?B\xcf\xba@i\x00\xbbA\x0c\xd3xB'
p4679
tp4680
bsg35
g25
(g19
S'\x00\x00HB'
p4681
tp4682
Rp4683
sg39
g4662
sg40
g41
(F-0.1940000057220459
F5.459000110626221
tp4684
Rp4685
sg44
g41
(F-0.8730000257492065
F1.4240000247955322
tp4686
Rp4687
sg47
g25
(g19
S'\x00\x00@B'
p4688
tp4689
Rp4690
sbsS'Cv'
p4691
g2
(g3
g4
Ntp4692
Rp4693
(dp4694
g8
g9
(g10
(I0
tp4695
g12
tp4696
Rp4697
(I1
(I4
tp4698
g19
I00
S'%\xaf\x10@&\xe4\xc7?\xfa~\x86?\xae\xd9V?'
p4699
tp4700
bsg24
g25
(g19
S'\xa6\xee\x92>'
p4701
tp4702
Rp4703
sg12
g9
(g10
(I0
tp4704
g12
tp4705
Rp4706
(I1
(I4
tp4707
g19
I00
S'\x8e\x86\xb5A3\x1b(?P\x19\x1cA-a^B'
p4708
tp4709
bsg35
g25
(g19
S'\x00\x00\xc0@'
p4710
tp4711
Rp4712
sg39
g4691
sg40
g41
(F0.017000000923871994
F0.008999999612569809
tp4713
Rp4714
sg44
g41
(F0.0020000000949949026
F0.0020000000949949026
tp4715
Rp4716
sg47
g25
(g19
S'\x00\x00\xc0@'
p4717
tp4718
Rp4719
sbsS'Cu'
p4720
g2
(g3
g4
Ntp4721
Rp4722
(dp4723
g8
g9
(g10
(I0
tp4724
g12
tp4725
Rp4726
(I1
(I4
tp4727
g19
I00
S'rhUA\xfb\\\xe5@\xa2\xb4\xb3@?5\xd6?'
p4728
tp4729
bsg24
g25
(g19
S'\xb0r\x98?'
p4730
tp4731
Rp4732
sg12
g9
(g10
(I0
tp4733
g12
tp4734
Rp4735
(I1
(I4
tp4736
g19
I00
S'\x98Le@\x91\xed|>yX6A\r\xa0\x81B'
p4737
tp4738
bsg35
g25
(g19
S'\x00\x00\xe8A'
p4739
tp4740
Rp4741
sg39
g4720
sg40
g41
(F-2.0190000534057617
F0.5889999866485596
tp4742
Rp4743
sg44
g41
(F0.2630000114440918
F1.2660000324249268
tp4744
Rp4745
sg47
g25
(g19
S'\x00\x00\xe8A'
p4746
tp4747
Rp4748
sbsS'Na+1'
p4749
g2
(g3
g4
Ntp4750
Rp4751
(dp4752
g8
g9
(g10
(I0
tp4753
g12
tp4754
Rp4755
(I1
(I4
tp4756
g19
I00
S'\x7fjP@\xb3\xea{@\xa5,\xb3?\xdch\x80?'
p4757
tp4758
bsg24
g25
(g19
S'\x17\xd9\xce>'
p4759
tp4760
Rp4761
sg12
g9
(g10
(I0
tp4762
g12
tp4763
Rp4764
(I1
(I4
tp4765
g19
I00
S'\xc4\xb1*@\x8a\xb0\xc3@\x04\xe7L>\xbe\x9f`A'
p4766
tp4767
bsg35
g25
(g19
S'\x00\x000A'
p4768
tp4769
Rp4770
sg39
g4749
sg40
g41
(F0.1289999932050705
F0.12399999797344208
tp4771
Rp4772
sg44
g41
(F0.029999999329447746
F0.02500000037252903
tp4773
Rp4774
sg47
g25
(g19
S'\x00\x00 A'
p4775
tp4776
Rp4777
sbsS'Siv'
p4778
g2
(g3
g4
Ntp4779
Rp4780
(dp4781
g8
g9
(g10
(I0
tp4782
g12
tp4783
Rp4784
(I1
(I4
tp4785
g19
I00
S"\xc24\xb5@\xc0\x95D@'\xf7'@aT\xb2?"
p4786
tp4787
bsg24
g25
(g19
S'\xfd\x9f\x9f?'
p4788
tp4789
Rp4790
sg12
g9
(g10
(I0
tp4791
g12
tp4792
Rp4793
(I1
(I4
tp4794
g19
I00
S'\xa3\x92*@R\xa7\x1aB\xf9\xbcj?s\x17\xbbB'
p4795
tp4796
bsg35
g25
(g19
S'\x00\x00`A'
p4797
tp4798
Rp4799
sg39
g4778
sg40
g41
(F0.24400000274181366
F0.33000001311302185
tp4800
Rp4801
sg44
g41
(F0.07199999690055847
F0.07100000232458115
tp4802
Rp4803
sg47
g25
(g19
S'\x00\x00`A'
p4804
tp4805
Rp4806
sbsS'La'
p4807
g2
(g3
g4
Ntp4808
Rp4809
(dp4810
g8
g9
(g10
(I0
tp4811
g12
tp4812
Rp4813
(I1
(I4
tp4814
g19
I00
S'\xbe\x9f\xa4A\xc0\xca\x9cA\x94\xf65ARaR@'
p4815
tp4816
bsg24
g25
(g19
S'\xd8d\t@'
p4817
tp4818
Rp4819
sg12
g9
(g10
(I0
tp4820
g12
tp4821
Rp4822
(I1
(I4
tp4823
g19
I00
S'\xd1\xae<@\xa8Wz>I.\x96A\xbe\x1f\x05C'
p4824
tp4825
bsg35
g25
(g19
S'\x00\x00dB'
p4826
tp4827
Rp4828
sg39
g4807
sg40
g41
(F-1.715999960899353
F9.035999298095703
tp4829
Rp4830
sg44
g41
(F-0.5879999995231628
F2.4519999027252197
tp4831
Rp4832
sg47
g25
(g19
S'\x00\x00dB'
p4833
tp4834
Rp4835
sbsS'Am'
p4836
g2
(g3
g4
Ntp4837
Rp4838
(dp4839
g8
g9
(g10
(I0
tp4840
g12
tp4841
Rp4842
(I1
(I4
tp4843
g19
I00
S'\xb2\xae\x12B)\xcb\xc0Ad\xbb\x8aAd\x92_@'
p4844
tp4845
bsg24
g25
(g19
S'H\xbfUA'
p4846
tp4847
Rp4848
sg12
g9
(g10
(I0
tp4849
g12
tp4850
Rp4851
(I1
(I4
tp4852
g19
I00
S'8\x9e\xf7>\xce6M@\x81\x04eA\xc6\x8b\xccB'
p4853
tp4854
bsg35
g25
(g19
S'\x00\x00\xbeB'
p4855
tp4856
Rp4857
sg39
g4836
sg40
g41
(F-5.929999828338623
F15.086999893188477
tp4858
Rp4859
sg44
g41
(F-8.925999641418457
F4.511000156402588
tp4860
Rp4861
sg47
g25
(g19
S'\x00\x00\xbeB'
p4862
tp4863
Rp4864
sbsS'Li'
p4865
g2
(g3
g4
Ntp4866
Rp4867
(dp4868
g8
g9
(g10
(I0
tp4869
g12
tp4870
Rp4871
(I1
(I4
tp4872
g19
I00
S'\xdch\x90?n4@?{\x14\x1e?\xcd;\xee>'
p4873
tp4874
bsg24
g25
(g19
S'Qk\x1a='
p4875
tp4876
Rp4877
sg12
g9
(g10
(I0
tp4878
g12
tp4879
Rp4880
(I1
(I4
tp4881
g19
I00
S'+\x18}@\x0b\xb5\x86?\xf0\xc7\xaaB\xd1B(C'
p4882
tp4883
bsg35
g25
(g19
S'\x00\x00@@'
p4884
tp4885
Rp4886
sg39
g4865
sg40
g41
(F0.0010000000474974513
F0.0
tp4887
Rp4888
sg44
g41
(F0.0
F0.0
tp4889
Rp4890
sg47
g25
(g19
S'\x00\x00@@'
p4891
tp4892
Rp4893
sbsS'Y+3'
p4894
g2
(g3
g4
Ntp4895
Rp4896
(dp4897
g8
g9
(g10
(I0
tp4898
g12
tp4899
Rp4900
(I1
(I4
tp4901
g19
I00
S'\x16j\x8fA\x19s\x12A0L\xe2?\x98n\x04\xc2'
p4902
tp4903
bsg24
g25
(g19
S'r\n!B'
p4904
tp4905
Rp4906
sg12
g9
(g10
(I0
tp4907
g12
tp4908
Rp4909
(I1
(I4
tp4910
g19
I00
S'qU\xad?\x98n3AzG\xb5A\xdf\x1aX\xbc'
p4911
tp4912
bsg35
g25
(g19
S'\x00\x00\x1cB'
p4913
tp4914
Rp4915
sg39
g4894
sg40
g41
(F-0.38600000739097595
F2.0250000953674316
tp4916
Rp4917
sg44
g41
(F-2.9509999752044678
F3.5420000553131104
tp4918
Rp4919
sg47
g25
(g19
S'\x00\x00\x10B'
p4920
tp4921
Rp4922
sbsS'Tl'
p4923
g2
(g3
g4
Ntp4924
Rp4925
(dp4926
g8
g9
(g10
(I0
tp4927
g12
tp4928
Rp4929
(I1
(I4
tp4930
g19
I00
S'W[\xdcAgD\x99A\xa6\x9bxAk\xd4\xb0@'
p4931
tp4932
bsg24
g25
(g19
S')\xcbRA'
p4933
tp4934
Rp4935
sg12
g9
(g10
(I0
tp4936
g12
tp4937
Rp4938
(I1
(I4
tp4939
g19
I00
S"\xe9\xb7'?\xf6Q\x0bA\xfcR\xfb?uB7B"
p4940
tp4941
bsg35
g25
(g19
S'\x00\x00\xa2B'
p4942
tp4943
Rp4944
sg39
g4923
sg40
g41
(F-4.882999897003174
F8.08899974822998
tp4945
Rp4946
sg44
g41
(F-3.555999994277954
F9.659000396728516
tp4947
Rp4948
sg47
g25
(g19
S'\x00\x00\xa2B'
p4949
tp4950
Rp4951
sbsS'Tm'
p4952
g2
(g3
g4
Ntp4953
Rp4954
(dp4955
g8
g9
(g10
(I0
tp4956
g12
tp4957
Rp4958
(I1
(I4
tp4959
g19
I00
S'\x88t\xe1A^)~A\x9awrA\xfe+?@'
p4960
tp4961
bsg24
g25
(g19
S'\xdf2\xd8@'
p4962
tp4963
Rp4964
sg12
g9
(g10
(I0
tp4965
g12
tp4966
Rp4967
(I1
(I4
tp4968
g19
I00
S'k\xd4\x01@\xd5\x94t>\xc2\xf5/A\x08\xec\xcdB'
p4969
tp4970
bsg35
g25
(g19
S'\x00\x00\x8aB'
p4971
tp4972
Rp4973
sg39
g4952
sg40
g41
(F-8.48799991607666
F4.181000232696533
tp4974
Rp4975
sg44
g41
(F-0.7950000166893005
F5.248000144958496
tp4976
Rp4977
sg47
g25
(g19
S'\x00\x00\x8aB'
p4978
tp4979
Rp4980
sbsS'Th'
p4981
g2
(g3
g4
Ntp4982
Rp4983
(dp4984
g8
g9
(g10
(I0
tp4985
g12
tp4986
Rp4987
(I1
(I4
tp4988
g19
I00
S'\x0cB\x0eB\r`\xbbA\xf1\xf4KA1\xd3\x99@'
p4989
tp4990
bsg24
g25
(g19
S'\x04\xe7VA'
p4991
tp4992
Rp4993
sg12
g9
(g10
(I0
tp4994
g12
tp4995
Rp4996
(I1
(I4
tp4997
g19
I00
S'L8\x10?\x10\x92]@\xaf\xa5\x8eA*X\xc6B'
p4998
tp4999
bsg35
g25
(g19
S'\x00\x00\xb4B'
p5000
tp5001
Rp5002
sg39
g4981
sg40
g41
(F-5.091000080108643
F12.329999923706055
tp5003
Rp5004
sg44
g41
(F-8.126999855041504
F8.869999885559082
tp5005
Rp5006
sg47
g25
(g19
S'\x00\x00\xb4B'
p5007
tp5008
Rp5009
sbsS'Ti'
p5010
g2
(g3
g4
Ntp5011
Rp5012
(dp5013
g8
g9
(g10
(I0
tp5014
g12
tp5015
Rp5016
(I1
(I4
tp5017
g19
I00
S'\xe9&\x1cA\xb7b\xeb@\x1c|\xd9?\x03x\xf3?'
p5018
tp5019
bsg24
g25
(g19
S'\xfa\xed\xa3?'
p5020
tp5021
Rp5022
sg12
g9
(g10
(I0
tp5023
g12
tp5024
Rp5025
(I1
(I4
tp5026
g19
I00
S'\xc19\xfb@\x00\x00\x00?\x03\x89\x0eB\xc25\xe8B'
p5027
tp5028
bsg35
g25
(g19
S'\x00\x00\xb0A'
p5029
tp5030
Rp5031
sg39
g5010
sg40
g41
(F0.1889999955892563
F1.8070000410079956
tp5032
Rp5033
sg44
g41
(F0.24799999594688416
F0.44600000977516174
tp5034
Rp5035
sg47
g25
(g19
S'\x00\x00\xb0A'
p5036
tp5037
Rp5038
sbsS'Te'
p5039
g2
(g3
g4
Ntp5040
Rp5041
(dp5042
g8
g9
(g10
(I0
tp5043
g12
tp5044
Rp5045
(I1
(I4
tp5046
g19
I00
S'\x17\xb7\x9fAC\x1c\x98A\xc6\xa2\xc4@\x94\x87!@'
p5047
tp5048
bsg24
g25
(g19
S'\x96C\x8b@'
p5049
tp5050
Rp5051
sg12
g9
(g10
(I0
tp5052
g12
tp5053
Rp5054
(I1
(I4
tp5055
g19
I00
S'N(\x9a@=~\xd7>*:\xe4A<\xae\x8dB'
p5056
tp5057
bsg35
g25
(g19
S'\x00\x00PB'
p5058
tp5059
Rp5060
sg39
g5039
sg40
g41
(F-0.4180000126361847
F6.3520002365112305
tp5061
Rp5062
sg44
g41
(F-0.7720000147819519
F1.6749999523162842
tp5063
Rp5064
sg47
g25
(g19
S'\x00\x00PB'
p5065
tp5066
Rp5067
sbsS'Tb'
p5068
g2
(g3
g4
Ntp5069
Rp5070
(dp5071
g8
g9
(g10
(I0
tp5072
g12
tp5073
Rp5074
(I1
(I4
tp5075
g19
I00
S'I.\xcfA}\xbf\x91A4\x11eA\xcd\x06=@'
p5076
tp5077
bsg24
g25
(g19
S'lCe@'
p5078
tp5079
Rp5080
sg12
g9
(g10
(I0
tp5081
g12
tp5082
Rp5083
(I1
(I4
tp5084
g19
I00
S'\x1a\x86\x0f@\xb6\xd9H>\x05\xa3JAX\xb9\xe6B'
p5085
tp5086
bsg35
g25
(g19
S'\x00\x00\x82B'
p5087
tp5088
Rp5089
sg39
g5068
sg40
g41
(F-9.498000144958496
F9.241999626159668
tp5090
Rp5091
sg44
g41
(F-0.5910000205039978
F4.151000022888184
tp5092
Rp5093
sg47
g25
(g19
S'\x00\x00\x82B'
p5094
tp5095
Rp5096
sbsS'Tc'
p5097
g2
(g3
g4
Ntp5098
Rp5099
(dp5100
g8
g9
(g10
(I0
tp5101
g12
tp5102
Rp5103
(I1
(I4
tp5104
g19
I00
S'r\n\x99AM\x841A\xb1\xc4\x94@\xbb\x9b-@'
p5105
tp5106
bsg24
g25
(g19
S'\xdd\xef\xac@'
p5107
tp5108
Rp5109
sg12
g9
(g10
(I0
tp5110
g12
tp5111
Rp5112
(I1
(I4
tp5113
g19
I00
S'\xc17]?cQ\x02A\xcb\x90\xacA\xc4\xb1\xadB'
p5114
tp5115
bsg35
g25
(g19
S'\x00\x00,B'
p5116
tp5117
Rp5118
sg39
g5097
sg40
g41
(F-0.14499999582767487
F3.005000114440918
tp5119
Rp5120
sg44
g41
(F-0.5899999737739563
F0.7590000033378601
tp5121
Rp5122
sg47
g25
(g19
S'\x00\x00,B'
p5123
tp5124
Rp5125
sbsS'Pu+6'
p5126
g2
(g3
g4
Ntp5127
Rp5128
(dp5129
g8
g9
(g10
(I0
tp5130
g12
tp5131
Rp5132
(I1
(I4
tp5133
g19
I00
S'\xc4\xb1\x0cB\xab\xbe\xb5AL7lA\x9bZ\x12@'
p5134
tp5135
bsg24
g25
(g19
S'c\xeePA'
p5136
tp5137
Rp5138
sg12
g9
(g10
(I0
tp5139
g12
tp5140
Rp5141
(I1
(I4
tp5142
g19
I00
S'\xcbG\xf2>BC/@\x15\xd98AAq\xa7A'
p5143
tp5144
bsg35
g25
(g19
S'\x00\x00\xbcB'
p5145
tp5146
Rp5147
sg39
g5126
sg40
g41
(F-5.711999893188477
F14.535999298095703
tp5148
Rp5149
sg44
g41
(F-9.725000381469727
F4.329999923706055
tp5150
Rp5151
sg47
g25
(g19
S'\x00\x00\xb0B'
p5152
tp5153
Rp5154
sbsS'Ta'
p5155
g2
(g3
g4
Ntp5156
Rp5157
(dp5158
g8
g9
(g10
(I0
tp5159
g12
tp5160
Rp5161
(I1
(I4
tp5162
g19
I00
S'\x84\x9e\xe9A6\xabsAL7hA:z\x98@'
p5163
tp5164
bsg24
g25
(g19
S'\x8a\xe5\x13A'
p5165
tp5166
Rp5167
sg12
g9
(g10
(I0
tp5168
g12
tp5169
Rp5170
(I1
(I4
tp5171
g19
I00
S'z\xfc\xe2?g\xed\x15AL\x8a\x97>%u}B'
p5172
tp5173
bsg35
g25
(g19
S'\x00\x00\x92B'
p5174
tp5175
Rp5176
sg39
g5155
sg40
g41
(F-6.35099983215332
F5.270999908447266
tp5177
Rp5178
sg44
g41
(F-1.2580000162124634
F6.5229997634887695
tp5179
Rp5180
sg47
g25
(g19
S'\x00\x00\x92B'
p5181
tp5182
Rp5183
sbsS'Pb+2'
p5184
g2
(g3
g4
Ntp5185
Rp5186
(dp5187
g8
g9
(g10
(I0
tp5188
g12
tp5189
Rp5190
(I1
(I4
tp5191
g19
I00
S'\x0eO\xaeA\xac\x8b\x9cA\xf3\x1f\x99A\xafZ\xe0@'
p5192
tp5193
bsg24
g25
(g19
S'\x0c\x93GA'
p5194
tp5195
Rp5196
sg12
g9
(g10
(I0
tp5197
g12
tp5198
Rp5199
(I1
(I4
tp5200
g19
I00
S'\xb5\x15\xab?V\r\xfa>\xf5\xb9\xd8@o\x81\xbeA'
p5201
tp5202
bsg35
g25
(g19
S'\x00\x00\xa4B'
p5203
tp5204
Rp5205
sg39
g5184
sg40
g41
(F-4.817999839782715
F8.505000114440918
tp5206
Rp5207
sg44
g41
(F-4.132999897003174
F10.10200023651123
tp5208
Rp5209
sg47
g25
(g19
S'\x00\x00\xa0B'
p5210
tp5211
Rp5212
sbsS'La+3'
p5213
g2
(g3
g4
Ntp5214
Rp5215
(dp5216
g8
g9
(g10
(I0
tp5217
g12
tp5218
Rp5219
(I1
(I4
tp5220
g19
I00
S'\xbf\xfd\xa1A\xaa\x02\x9bA\xe6\x1d:A|\x0e\xac>'
p5221
tp5222
bsg24
g25
(g19
S'\x81&\x1a@'
p5223
tp5224
Rp5225
sg12
g9
(g10
(I0
tp5226
g12
tp5227
Rp5228
(I1
(I4
tp5229
g19
I00
S'\xc0\xec:@}[\x80>\x9d\x91\x8eA\xfc\xc7[B'
p5230
tp5231
bsg35
g25
(g19
S'\x00\x00dB'
p5232
tp5233
Rp5234
sg39
g5213
sg40
g41
(F-1.715999960899353
F9.035999298095703
tp5235
Rp5236
sg44
g41
(F-0.5879999995231628
F2.4519999027252197
tp5237
Rp5238
sg47
g25
(g19
S'\x00\x00XB'
p5239
tp5240
Rp5241
sbsS'Tb+3'
p5242
g2
(g3
g4
Ntp5243
Rp5244
(dp5245
g8
g9
(g10
(I0
tp5246
g12
tp5247
Rp5248
(I1
(I4
tp5249
g19
I00
S'\xaf\xa5\xc7A\xe6\x9d\xa2A\x1f\xf4CA\xd5xq@'
p5250
tp5251
bsg24
g25
(g19
S'\xc0$1?'
p5252
tp5253
Rp5254
sg12
g9
(g10
(I0
tp5255
g12
tp5256
Rp5257
(I1
(I4
tp5258
g19
I00
S'\xab\x95\x03@\x15\x1d\x19>d\xcc A\xe97\xaaA'
p5259
tp5260
bsg35
g25
(g19
S'\x00\x00\x82B'
p5261
tp5262
Rp5263
sg39
g5242
sg40
g41
(F-9.498000144958496
F9.241999626159668
tp5264
Rp5265
sg44
g41
(F-0.5910000205039978
F4.151000022888184
tp5266
Rp5267
sg47
g25
(g19
S'\x00\x00xB'
p5268
tp5269
Rp5270
sbsS'Pb+4'
p5271
g2
(g3
g4
Ntp5272
Rp5273
(dp5274
g8
g9
(g10
(I0
tp5275
g12
tp5276
Rp5277
(I1
(I4
tp5278
g19
I00
S'b\x7f\x00B\x04g\x96A\xaeG@A\xe7\x00\xdf@'
p5279
tp5280
bsg24
g25
(g19
S'6Y\x01A'
p5281
tp5282
Rp5283
sg12
g9
(g10
(I0
tp5284
g12
tp5285
Rp5286
(I1
(I4
tp5287
g19
I00
S'x\xb9\x80?\x0f\x7f\xc3@\xea\x91\x16>\x8blkA'
p5288
tp5289
bsg35
g25
(g19
S'\x00\x00\xa4B'
p5290
tp5291
Rp5292
sg39
g5271
sg40
g41
(F-4.817999839782715
F8.505000114440918
tp5293
Rp5294
sg44
g41
(F-4.132999897003174
F10.10200023651123
tp5295
Rp5296
sg47
g25
(g19
S'\x00\x00\x9cB'
p5297
tp5298
Rp5299
sbsS'Pu+4'
p5300
g2
(g3
g4
Ntp5301
Rp5302
(dp5303
g8
g9
(g10
(I0
tp5304
g12
tp5305
Rp5306
(I1
(I4
tp5307
g19
I00
S'\xe2\x98\x0eB\x02+\xb5A\x83\xc0UA\xa3\x06\xa6@'
p5308
tp5309
bsg24
g25
(g19
S'\xee|RA'
p5310
tp5311
Rp5312
sg12
g9
(g10
(I0
tp5313
g12
tp5314
Rp5315
(I1
(I4
tp5316
g19
I00
S'\xf2|\xf6>\t\xf98@V\x0e5A\x0b\xa4\xaeA'
p5317
tp5318
bsg35
g25
(g19
S'\x00\x00\xbcB'
p5319
tp5320
Rp5321
sg39
g5300
sg40
g41
(F-5.711999893188477
F14.535999298095703
tp5322
Rp5323
sg44
g41
(F-9.725000381469727
F4.329999923706055
tp5324
Rp5325
sg47
g25
(g19
S'\x00\x00\xb4B'
p5326
tp5327
Rp5328
sbsS'Yb'
p5329
g2
(g3
g4
Ntp5330
Rp5331
(dp5332
g8
g9
(g10
(I0
tp5333
g12
tp5334
Rp5335
(I1
(I4
tp5336
g19
I00
S'\x14P\xe5A\xb6\xf3vAo\xf0tA\x19V?@'
p5337
tp5338
bsg24
g25
(g19
S'\x92"\xf2@'
p5339
tp5340
Rp5341
sg12
g9
(g10
(I0
tp5342
g12
tp5343
Rp5344
(I1
(I4
tp5345
g19
I00
S'F\x94\xfe?\x1a\xa5\x83>\x9c\xa2*A\x81\xd5\xc8B'
p5346
tp5347
bsg35
g25
(g19
S'\x00\x00\x8cB'
p5348
tp5349
Rp5350
sg39
g5329
sg40
g41
(F-7.701000213623047
F4.432000160217285
tp5351
Rp5352
sg44
g41
(F-0.8840000033378601
F5.547999858856201
tp5353
Rp5354
sg47
g25
(g19
S'\x00\x00\x8cB'
p5355
tp5356
Rp5357
sbsS'K+1'
p5358
g2
(g3
g4
Ntp5359
Rp5360
(dp5361
g8
g9
(g10
(I0
tp5362
g12
tp5363
Rp5364
(I1
(I4
tp5365
g19
I00
S'L\xa6\xfe@\x02\xbc\xef@\xee|\xcb@\x12\x83\x98?'
p5366
tp5367
bsg24
g25
(g19
S'\xfa\xed\x9f\xc0'
p5368
tp5369
Rp5370
sg12
g9
(g10
(I0
tp5371
g12
tp5372
Rp5373
(I1
(I4
tp5374
g19
I00
S'-!JATtD?o\x12\x03\xbbjM\xffA'
p5375
tp5376
bsg35
g25
(g19
S'\x00\x00\x98A'
p5377
tp5378
Rp5379
sg39
g5358
sg40
g41
(F0.36500000953674316
F1.065999984741211
tp5380
Rp5381
sg44
g41
(F0.17900000512599945
F0.25
tp5382
Rp5383
sg47
g25
(g19
S'\x00\x00\x90A'
p5384
tp5385
Rp5386
sbsS'Po'
p5387
g2
(g3
g4
Ntp5388
Rp5389
(dp5390
g8
g9
(g10
(I0
tp5391
g12
tp5392
Rp5393
(I1
(I4
tp5394
g19
I00
S'\xbe\xb0\nB\xa3\x92wA \xd2QA\x02\xd4\xe0@'
p5395
tp5396
bsg24
g25
(g19
S'\xfe\xd4ZA'
p5397
tp5398
Rp5399
sg12
g9
(g10
(I0
tp5400
g12
tp5401
Rp5402
(I1
(I4
tp5403
g19
I00
S'\xact3?\xfb?c@\x18\xe7\x18A\x9c\x04<B'
p5404
tp5405
bsg35
g25
(g19
S'\x00\x00\xa8B'
p5406
tp5407
Rp5408
sg39
g5387
sg40
g41
(F-4.75600004196167
F9.382999420166016
tp5409
Rp5410
sg44
g41
(F-5.923999786376953
F11.041999816894531
tp5411
Rp5412
sg47
g25
(g19
S'\x00\x00\xa8B'
p5413
tp5414
Rp5415
sbsS'Be+2'
p5416
g2
(g3
g4
Ntp5417
Rp5418
(dp5419
g8
g9
(g10
(I0
tp5420
g12
tp5421
Rp5422
(I1
(I4
tp5423
g19
I00
S'aT\xc8@\xce\x88b?\xed\x9eL?\x1e\xa7(>'
p5424
tp5425
bsg24
g25
(g19
S'\x91~\xc3\xc0'
p5426
tp5427
Rp5428
sg12
g9
(g10
(I0
tp5429
g12
tp5430
Rp5431
(I1
(I4
tp5432
g19
I00
S'|\xf20;\x14\xd0T?\xb5\xa6\x11@\xce\xaa\xa3@'
p5433
tp5434
bsg35
g25
(g19
S'\x00\x00\x80@'
p5435
tp5436
Rp5437
sg39
g5416
sg40
g41
(F0.003000000026077032
F0.0010000000474974513
tp5438
Rp5439
sg44
g41
(F0.0
F0.0
tp5440
Rp5441
sg47
g25
(g19
S'\x00\x00\x00@'
p5442
tp5443
Rp5444
sbsS'Pd+2'
p5445
g2
(g3
g4
Ntp5446
Rp5447
(dp5448
g8
g9
(g10
(I0
tp5449
g12
tp5450
Rp5451
(I1
(I4
tp5452
g19
I00
S']\\\x99A\x86ZsA\x9cP\x8a@\x00\x00\x00\x00'
p5453
tp5454
bsg24
g25
(g19
S'\xcaT\xa9@'
p5455
tp5456
Rp5457
sg12
g9
(g10
(I0
tp5458
g12
tp5459
Rp5460
(I1
(I4
tp5461
g19
I00
S'i;2?\x8a\xc8\xf1@\xac\x0b\xb4A\x00\x00\x00\x00'
p5462
tp5463
bsg35
g25
(g19
S'\x00\x008B'
p5464
tp5465
Rp5466
sg39
g5445
sg40
g41
(F-0.05900000035762787
F3.934000015258789
tp5467
Rp5468
sg44
g41
(F-1.1770000457763672
F1.0069999694824219
tp5469
Rp5470
sg47
g25
(g19
S'\x00\x000B'
p5471
tp5472
Rp5473
sbsS'Pd+4'
p5474
g2
(g3
g4
Ntp5475
Rp5476
(dp5477
g8
g9
(g10
(I0
tp5478
g12
tp5479
Rp5480
(I1
(I4
tp5481
g19
I00
S'\x91\xfe\x99A\xd7\xa3lA\x1c%9@\xd9_\xfe\xc0'
p5482
tp5483
bsg24
g25
(g19
S'EGPA'
p5484
tp5485
Rp5486
sg12
g9
(g10
(I0
tp5487
g12
tp5488
Rp5489
(I1
(I4
tp5490
g19
I00
S'\x13\x10/?\x1f\xbf\xe4@\xb1P\x8fAe\x00\xa8;'
p5491
tp5492
bsg35
g25
(g19
S'\x00\x008B'
p5493
tp5494
Rp5495
sg39
g5474
sg40
g41
(F-0.05900000035762787
F3.934000015258789
tp5496
Rp5497
sg44
g41
(F-1.1770000457763672
F1.0069999694824219
tp5498
Rp5499
sg47
g25
(g19
S'\x00\x00(B'
p5500
tp5501
Rp5502
sbsS'Dy'
p5503
g2
(g3
g4
Ntp5504
Rp5505
(dp5506
g8
g9
(g10
(I0
tp5507
g12
tp5508
Rp5509
(I1
(I4
tp5510
g19
I00
S'V\x0e\xd4A=\x1b\x8dA\x1f\xf4hA-\xcf=@'
p5511
tp5512
bsg24
g25
(g19
S'Q\x83\x89@'
p5513
tp5514
Rp5515
sg12
g9
(g10
(I0
tp5516
g12
tp5517
Rp5518
(I1
(I4
tp5519
g19
I00
S'f\x88\x0b@-\x06O>\xd4\tCA}\xbf\xdfB'
p5520
tp5521
bsg35
g25
(g19
S'\x00\x00\x84B'
p5522
tp5523
Rp5524
sg39
g5503
sg40
g41
(F-10.42300033569336
F9.748000144958496
tp5525
Rp5526
sg44
g41
(F-0.6190000176429749
F4.409999847412109
tp5527
Rp5528
sg47
g25
(g19
S'\x00\x00\x84B'
p5529
tp5530
Rp5531
sbsS'Au'
p5532
g2
(g3
g4
Ntp5533
Rp5534
(dp5535
g8
g9
(g10
(I0
tp5536
g12
tp5537
Rp5538
(I1
(I4
tp5539
g19
I00
S'"\x0e\x87A\xfb\xba\x94A2w\xccA\x1f\x85\xbb@'
p5540
tp5541
bsg24
g25
(g19
S'\x84\rAA'
p5542
tp5543
Rp5544
sg12
g9
(g10
(I0
tp5545
g12
tp5546
Rp5547
(I1
(I4
tp5548
g19
I00
S'M\x15\xec>\x13\xf2\tA\xd6\xc5\xbd?\x18\x95\x11B'
p5549
tp5550
bsg35
g25
(g19
S'\x00\x00\x9eB'
p5551
tp5552
Rp5553
sg39
g5532
sg40
g41
(F-5.0960001945495605
F7.296999931335449
tp5554
Rp5555
sg44
g41
(F-2.687999963760376
F8.79800033569336
tp5556
Rp5557
sg47
g25
(g19
S'\x00\x00\x9eB'
p5558
tp5559
Rp5560
sbsS'Cs+1'
p5561
g2
(g3
g4
Ntp5562
Rp5563
(dp5564
g8
g9
(g10
(I0
tp5565
g12
tp5566
Rp5567
(I1
(I4
tp5568
g19
I00
S'\xb7\xd1\xa2A\xbc\x05\x99A{\x83$A\xdd$v?'
p5569
tp5570
bsg24
g25
(g19
S'\xc6\xdcQ@'
p5571
tp5572
Rp5573
sg12
g9
(g10
(I0
tp5574
g12
tp5575
Rp5576
(I1
(I4
tp5577
g19
I00
S'\xf8Sc@\xd2\x00\x9e>\xd0\xb3\xbdAt\xd3mB'
p5578
tp5579
bsg35
g25
(g19
S'\x00\x00\\B'
p5580
tp5581
Rp5582
sg39
g5561
sg40
g41
(F-1.0219999551773071
F7.9039998054504395
tp5583
Rp5584
sg44
g41
(F-0.6439999938011169
F2.11899995803833
tp5585
Rp5586
sg47
g25
(g19
S'\x00\x00XB'
p5587
tp5588
Rp5589
sbsS'I'
p5590
g2
(g3
g4
Ntp5591
Rp5592
(dp5593
g8
g9
(g10
(I0
tp5594
g12
tp5595
Rp5596
(I1
(I4
tp5597
g19
I00
S'w-\xa1A\x8e\xf5\x97A\rq\xf0@\x06\x81\x11@'
p5598
tp5599
bsg24
g25
(g19
S'EG\x82@'
p5600
tp5601
Rp5602
sg12
g9
(g10
(I0
tp5603
g12
tp5604
Rp5605
(I1
(I4
tp5606
g19
I00
S'\xa0\x1a\x8b@\xdcF\xc3>\xc4 \xdeAU\xc1\x85B'
p5607
tp5608
bsg35
g25
(g19
S'\x00\x00TB'
p5609
tp5610
Rp5611
sg39
g5590
sg40
g41
(F-0.5789999961853027
F6.835000038146973
tp5612
Rp5613
sg44
g41
(F-0.7260000109672546
F1.812000036239624
tp5614
Rp5615
sg47
g25
(g19
S'\x00\x00TB'
p5616
tp5617
Rp5618
sbsS'Pr+4'
p5619
g2
(g3
g4
Ntp5620
Rp5621
(dp5622
g8
g9
(g10
(I0
tp5623
g12
tp5624
Rp5625
(I1
(I4
tp5626
g19
I00
S'\xc8\x87\xa7Acn\xa0A\x03xGA\x9f\xe7\x97>'
p5627
tp5628
bsg24
g25
(g19
S'\xb5\x15\x9f?'
p5629
tp5630
Rp5631
sg12
g9
(g10
(I0
tp5632
g12
tp5633
Rp5634
(I1
(I4
tp5635
g19
I00
S'\xe0\xdb"@.WO>\xea\x04mAq\xdb5B'
p5636
tp5637
bsg35
g25
(g19
S'\x00\x00lB'
p5638
tp5639
Rp5640
sg39
g5619
sg40
g41
(F-2.938999891281128
F10.53499984741211
tp5641
Rp5642
sg44
g41
(F-0.5299999713897705
F2.8450000286102295
tp5643
Rp5644
sg47
g25
(g19
S'\x00\x00\\B'
p5645
tp5646
Rp5647
sbsS'U'
p5648
g2
(g3
g4
Ntp5649
Rp5650
(dp5651
g8
g9
(g10
(I0
tp5652
g12
tp5653
Rp5654
(I1
(I4
tp5655
g19
I00
S'Y\x17\x10BjM\xbbA\x83/oA\x19\x04\x86@'
p5656
tp5657
bsg24
g25
(g19
S'yXVA'
p5658
tp5659
Rp5660
sg12
g9
(g10
(I0
tp5661
g12
tp5662
Rp5663
(I1
(I4
tp5664
g19
I00
S'4\x80\x07?\xb7\xd1T@\xd9\xbd\x80A\xdb9\xc9B'
p5665
tp5666
bsg35
g25
(g19
S'\x00\x00\xb8B'
p5667
tp5668
Rp5669
sg39
g5648
sg40
g41
(F-5.359000205993652
F13.409000396728516
tp5670
Rp5671
sg44
g41
(F-10.67300033569336
F9.653999328613281
tp5672
Rp5673
sg47
g25
(g19
S'\x00\x00\xb8B'
p5674
tp5675
Rp5676
sbsS'Y'
p5677
g2
(g3
g4
Ntp5678
Rp5679
(dp5680
g8
g9
(g10
(I0
tp5681
g12
tp5682
Rp5683
(I1
(I4
tp5684
g19
I00
S'?5\x8eA\xae\xb6$A\xc5=\xb7@.\x04Q@'
p5685
tp5686
bsg24
g25
(g19
S'\xad\xc0\xf4?'
p5687
tp5688
Rp5689
sg12
g9
(g10
(I0
tp5690
g12
tp5691
Rp5692
(I1
(I4
tp5693
g19
I00
S':\x92\xb3?B\xcfLA\x06\x9d\x00>?\xb5\xd0B'
p5694
tp5695
bsg35
g25
(g19
S'\x00\x00\x1cB'
p5696
tp5697
Rp5698
sg39
g5677
sg40
g41
(F-0.38600000739097595
F2.0250000953674316
tp5699
Rp5700
sg44
g41
(F-2.9509999752044678
F3.5420000553131104
tp5701
Rp5702
sg47
g25
(g19
S'\x00\x00\x1cB'
p5703
tp5704
Rp5705
sbsS'Ac'
p5706
g2
(g3
g4
Ntp5707
Rp5708
(dp5709
g8
g9
(g10
(I0
tp5710
g12
tp5711
Rp5712
(I1
(I4
tp5713
g19
I00
S'\x88\xa3\x0eBZ\xd3\xb8A.\x90IA\x05\xc5\x82@'
p5714
tp5715
bsg24
g25
(g19
S'\xf4lXA'
p5716
tp5717
Rp5718
sg12
g9
(g10
(I0
tp5719
g12
tp5720
Rp5721
(I1
(I4
tp5722
g19
I00
S'\xbc\xce\x16?\xff\xb2i@\xc0\xca\x94A=\n\xeaB'
p5723
tp5724
bsg35
g25
(g19
S'\x00\x00\xb2B'
p5725
tp5726
Rp5727
sg39
g5706
sg40
g41
(F-4.99399995803833
F11.798999786376953
tp5728
Rp5729
sg44
g41
(F-7.724999904632568
F8.472000122070312
tp5730
Rp5731
sg47
g25
(g19
S'\x00\x00\xb2B'
p5732
tp5733
Rp5734
sbsS'Ag'
p5735
g2
(g3
g4
Ntp5736
Rp5737
(dp5738
g8
g9
(g10
(I0
tp5739
g12
tp5740
Rp5741
(I1
(I4
tp5742
g19
I00
S'\x14?\x9aA\x0c\x82\x85Aw\xbe\x99@)\xed\x85?'
p5743
tp5744
bsg24
g25
(g19
S'^\xba\xa5@'
p5745
tp5746
Rp5747
sg12
g9
(g10
(I0
tp5748
g12
tp5749
Rp5750
(I1
(I4
tp5751
g19
I00
S'\x81\x04%?\x8a\x1f\xef@\xb4H\xc5A\x96\xa1\xc7B'
p5752
tp5753
bsg35
g25
(g19
S'\x00\x00<B'
p5754
tp5755
Rp5756
sg39
g5735
sg40
g41
(F-0.05999999865889549
F4.2820000648498535
tp5757
Rp5758
sg44
g41
(F-1.0850000381469727
F1.1009999513626099
tp5759
Rp5760
sg47
g25
(g19
S'\x00\x00<B'
p5761
tp5762
Rp5763
sbsS'P'
p5764
g2
(g3
g4
Ntp5765
Rp5766
(dp5767
g8
g9
(g10
(I0
tp5768
g12
tp5769
Rp5770
(I1
(I4
tp5771
g19
I00
S'm\xe7\xcd@0\xbb\x85@\n\xd7\xe3?\x89\xd2\xbe?'
p5772
tp5773
bsg24
g25
(g19
S'\x0b\xb5\x8e?'
p5774
tp5775
Rp5776
sg12
g9
(g10
(I0
tp5777
g12
tp5778
Rp5779
(I1
(I4
tp5780
g19
I00
S'\xbf\x0e\xf4?\x89A\xd9A\xf0\xa7\x06?9T\x88B'
p5781
tp5782
bsg35
g25
(g19
S'\x00\x00pA'
p5783
tp5784
Rp5785
sg39
g5764
sg40
g41
(F0.28299999237060547
F0.4339999854564667
tp5786
Rp5787
sg44
g41
(F0.09000000357627869
F0.0949999988079071
tp5788
Rp5789
sg47
g25
(g19
S'\x00\x00pA'
p5790
tp5791
Rp5792
sbsS'Cu+1'
p5793
g2
(g3
g4
Ntp5794
Rp5795
(dp5796
g8
g9
(g10
(I0
tp5797
g12
tp5798
Rp5799
(I1
(I4
tp5800
g19
I00
S'\xf6(?A\x00o\xeb@#\xdb\xc7@\xfee\xc7?'
p5801
tp5802
bsg24
g25
(g19
S'\n\xd7c?'
p5803
tp5804
Rp5805
sg12
g9
(g10
(I0
tp5806
g12
tp5807
Rp5808
(I1
(I4
tp5809
g19
I00
S'J{W@\x8c\xdbh>\x9a\x99\nA#\xca\xceA'
p5810
tp5811
bsg35
g25
(g19
S'\x00\x00\xe8A'
p5812
tp5813
Rp5814
sg39
g5793
sg40
g41
(F-2.0190000534057617
F0.5889999866485596
tp5815
Rp5816
sg44
g41
(F0.2630000114440918
F1.2660000324249268
tp5817
Rp5818
sg47
g25
(g19
S'\x00\x00\xe0A'
p5819
tp5820
Rp5821
sbsS'Cu+2'
p5822
g2
(g3
g4
Ntp5823
Rp5824
(dp5825
g8
g9
(g10
(I0
tp5826
g12
tp5827
Rp5828
(I1
(I4
tp5829
g19
I00
S'\x9d\x11=A\xf3\x93\xe3@\xd2\x00\xb9@\xe6\x96\x92?'
p5830
tp5831
bsg24
g25
(g19
S'\xc0x\x92?'
p5832
tp5833
Rp5834
sg12
g9
(g10
(I0
tp5835
g12
tp5836
Rp5837
(I1
(I4
tp5838
g19
I00
S'a\xfdW@\x95\xefy>k\x9a\xff@\x0e-\x9fA'
p5839
tp5840
bsg35
g25
(g19
S'\x00\x00\xe8A'
p5841
tp5842
Rp5843
sg39
g5822
sg40
g41
(F-2.0190000534057617
F0.5889999866485596
tp5844
Rp5845
sg44
g41
(F0.2630000114440918
F1.2660000324249268
tp5846
Rp5847
sg47
g25
(g19
S'\x00\x00\xd8A'
p5848
tp5849
Rp5850
sbsS'Ba+2'
p5851
g2
(g3
g4
Ntp5852
Rp5853
(dp5854
g8
g9
(g10
(I0
tp5855
g12
tp5856
Rp5857
(I1
(I4
tp5858
g19
I00
S'\x13r\xa1A\xa7\xe8\x98A\x84|.A8\xbeF?'
p5859
tp5860
bsg24
g25
(g19
S'w\xdbA@'
p5861
tp5862
Rp5863
sg12
g9
(g10
(I0
tp5864
g12
tp5865
Rp5866
(I1
(I4
tp5867
g19
I00
S'\xc5\xacM@\x02\x0e\x91>Gr\xa0A\xe7\xfbNB'
p5868
tp5869
bsg35
g25
(g19
S'\x00\x00`B'
p5870
tp5871
Rp5872
sg39
g5851
sg40
g41
(F-1.3339999914169312
F8.460000038146973
tp5873
Rp5874
sg44
g41
(F-0.6129999756813049
F2.2820000648498535
tp5875
Rp5876
sg47
g25
(g19
S'\x00\x00XB'
p5877
tp5878
Rp5879
sbsS'Al'
p5880
g2
(g3
g4
Ntp5881
Rp5882
(dp5883
g8
g9
(g10
(I0
tp5884
g12
tp5885
Rp5886
(I1
(I4
tp5887
g19
I00
S'Gr\xcd@\xc19\xf3?\x16\xfb\xcb?\x03x\xfb?'
p5888
tp5889
bsg24
g25
(g19
S'\x99\xbb\x8e?'
p5890
tp5891
Rp5892
sg12
g9
(g10
(I0
tp5893
g12
tp5894
Rp5895
(I1
(I4
tp5896
g19
I00
S'\x10zB@\t\x1b>?\xaa`\xfcA]-\xaaB'
p5897
tp5898
bsg35
g25
(g19
S'\x00\x00PA'
p5899
tp5900
Rp5901
sg39
g5880
sg40
g41
(F0.20399999618530273
F0.2460000067949295
tp5902
Rp5903
sg44
g41
(F0.0560000017285347
F0.052000001072883606
tp5904
Rp5905
sg47
g25
(g19
S'\x00\x00PA'
p5906
tp5907
Rp5908
sbsS'Pr+3'
p5909
g2
(g3
g4
Ntp5910
Rp5911
(dp5912
g8
g9
(g10
(I0
tp5913
g12
tp5914
Rp5915
(I1
(I4
tp5916
g19
I00
S'J\xfb\xaaA(\xfe\x9dA\\ BAe\xa5y?'
p5917
tp5918
bsg24
g25
(g19
S'\x9d\xba\xe2?'
p5919
tp5920
Rp5921
sg12
g9
(g10
(I0
tp5922
g12
tp5923
Rp5924
(I1
(I4
tp5925
g19
I00
S'\xf5J)@2q[>\x02+uAB\xa0\x11B'
p5926
tp5927
bsg35
g25
(g19
S'\x00\x00lB'
p5928
tp5929
Rp5930
sg39
g5909
sg40
g41
(F-2.938999891281128
F10.53499984741211
tp5931
Rp5932
sg44
g41
(F-0.5299999713897705
F2.8450000286102295
tp5933
Rp5934
sg47
g25
(g19
S'\x00\x00`B'
p5935
tp5936
Rp5937
sbsS'As'
p5938
g2
(g3
g4
Ntp5939
Rp5940
(dp5941
g8
g9
(g10
(I0
tp5942
g12
tp5943
Rp5944
(I1
(I4
tp5945
g19
I00
S'\xdf`\x85AB>\xc2@k\x9a[@\x8f\xe4\x88@'
p5946
tp5947
bsg24
g25
(g19
S'\xe7\xfb!@'
p5948
tp5949
Rp5950
sg12
g9
(g10
(I0
tp5951
g12
tp5952
Rp5953
(I1
(I4
tp5954
g19
I00
S'\xa6\x9b(@\xc2\x86\x87>\x99*OAU0?B'
p5955
tp5956
bsg35
g25
(g19
S'\x00\x00\x04B'
p5957
tp5958
Rp5959
sg39
g5938
sg40
g41
(F-1.0110000371932983
F1.00600004196167
tp5960
Rp5961
sg44
g41
(F-0.029999999329447746
F2.006999969482422
tp5962
Rp5963
sg47
g25
(g19
S'\x00\x00\x04B'
p5964
tp5965
Rp5966
sbsS'Ar'
p5967
g2
(g3
g4
Ntp5968
Rp5969
(dp5970
g8
g9
(g10
(I0
tp5971
g12
tp5972
Rp5973
(I1
(I4
tp5974
g19
I00
S"\x06\x81\xef@\xae\xb6\xd8@\xfee'?%u\xd2?"
p5975
tp5976
bsg24
g25
(g19
S'`\xe5\xb8?'
p5977
tp5978
Rp5979
sg12
g9
(g10
(I0
tp5980
g12
tp5981
Rp5982
(I1
(I4
tp5983
g19
I00
S'B>h?\x82smA\xdc\x97/BT\x92\x05B'
p5984
tp5985
bsg35
g25
(g19
S'\x00\x00\x90A'
p5986
tp5987
Rp5988
sg39
g5967
sg40
g41
(F0.3659999966621399
F0.871999979019165
tp5989
Rp5990
sg44
g41
(F0.1550000011920929
F0.20100000500679016
tp5991
Rp5992
sg47
g25
(g19
S'\x00\x00\x90A'
p5993
tp5994
Rp5995
sbsS'Nd+3'
p5996
g2
(g3
g4
Ntp5997
Rp5998
(dp5999
g8
g9
(g10
(I0
tp6000
g12
tp6001
Rp6002
(I1
(I4
tp6003
g19
I00
S'!\xb0\xafA\xa0x\x9fA\x85\xebAA\xd7Q\xc1?'
p6004
tp6005
bsg24
g25
(g19
S'\xa3\xe9\xbc?'
p6006
tp6007
Rp6008
sg12
g9
(g10
(I0
tp6009
g12
tp6010
Rp6011
(I1
(I4
tp6012
g19
I00
S'\xf9\xbd!@\xc9\x04L>Q\xdabA>\xf9\xf6A'
p6013
tp6014
bsg35
g25
(g19
S'\x00\x00pB'
p6015
tp6016
Rp6017
sg39
g5996
sg40
g41
(F-3.430999994277954
F10.932999610900879
tp6018
Rp6019
sg44
g41
(F-0.5350000262260437
F3.0179998874664307
tp6020
Rp6021
sg47
g25
(g19
S'\x00\x00dB'
p6022
tp6023
Rp6024
sbsS'At'
p6025
g2
(g3
g4
Ntp6026
Rp6027
(dp6028
g8
g9
(g10
(I0
tp6029
g12
tp6030
Rp6031
(I1
(I4
tp6032
g19
I00
S'\xe4C\rB6+\x98A_\xfb\x17A\x13\x9b\xed@'
p6033
tp6034
bsg24
g25
(g19
S'p_[A'
p6035
tp6036
Rp6037
sg12
g9
(g10
(I0
tp6038
g12
tp6039
Rp6040
(I1
(I4
tp6041
g19
I00
S'-\x95/?\x85_~@O\x1e6A\xd1\xe25B'
p6042
tp6043
bsg35
g25
(g19
S'\x00\x00\xaaB'
p6044
tp6045
Rp6046
sg39
g6025
sg40
g41
(F-4.771999835968018
F9.843000411987305
tp6047
Rp6048
sg44
g41
(F-7.443999767303467
F9.961000442504883
tp6049
Rp6050
sg47
g25
(g19
S'\x00\x00\xaaB'
p6051
tp6052
Rp6053
sbsS'In'
p6054
g2
(g3
g4
Ntp6055
Rp6056
(dp6057
g8
g9
(g10
(I0
tp6058
g12
tp6059
Rp6060
(I1
(I4
tp6061
g19
I00
S'\x98L\x99A\x10z\x94A\x00o\x89@\xce\x88\x02@'
p6062
tp6063
bsg24
g25
(g19
S'\x1b\r\x9e@'
p6064
tp6065
Rp6066
sg12
g9
(g10
(I0
tp6067
g12
tp6068
Rp6069
(I1
(I4
tp6070
g19
I00
S'\x83/\x0c?M\x15\xcc@\x98\xcc\xceA\x16\x9b\xb9B'
p6071
tp6072
bsg35
g25
(g19
S'\x00\x00DB'
p6073
tp6074
Rp6075
sg39
g6054
sg40
g41
(F-0.12600000202655792
F5.045000076293945
tp6076
Rp6077
sg44
g41
(F-0.9359999895095825
F1.309999942779541
tp6078
Rp6079
sg47
g25
(g19
S'\x00\x00DB'
p6080
tp6081
Rp6082
sbsS'Cr+2'
p6083
g2
(g3
g4
Ntp6084
Rp6085
(dp6086
g8
g9
(g10
(I0
tp6087
g12
tp6088
Rp6089
(I1
(I4
tp6090
g19
I00
S'<\xa5\x18A_\x07\xf8@\x9dKe@\xd6T\x02?'
p6091
tp6092
bsg24
g25
(g19
S'\x07\xed\x1d?'
p6093
tp6094
Rp6095
sg12
g9
(g10
(I0
tp6096
g12
tp6097
Rp6098
(I1
(I4
tp6099
g19
I00
S'\x1c%\xb5@\xfaB\xb0>\x85\xebTA\x8a\xb0\x01B'
p6100
tp6101
bsg35
g25
(g19
S'\x00\x00\xc0A'
p6102
tp6103
Rp6104
sg39
g6083
sg40
g41
(F-0.1979999989271164
F2.443000078201294
tp6105
Rp6106
sg44
g41
(F0.2840000092983246
F0.6240000128746033
tp6107
Rp6108
sg47
g25
(g19
S'\x00\x00\xb0A'
p6109
tp6110
Rp6111
sbsS'Cr+3'
p6112
g2
(g3
g4
Ntp6113
Rp6114
(dp6115
g8
g9
(g10
(I0
tp6116
g12
tp6117
Rp6118
(I1
(I4
tp6119
g19
I00
S'\xf7\xe4\x1aA\xa9\xf6\xf9@\xe0\x108@\x02\x9a\xe8='
p6120
tp6121
bsg24
g25
(g19
S'\xac\xad\x04?'
p6122
tp6123
Rp6124
sg12
g9
(g10
(I0
tp6125
g12
tp6126
Rp6127
(I1
(I4
tp6128
g19
I00
S'5\x07\xb3@\x8f5\xab>\xc4BMA \x81\x03B'
p6129
tp6130
bsg35
g25
(g19
S'\x00\x00\xc0A'
p6131
tp6132
Rp6133
sg39
g6112
sg40
g41
(F-0.1979999989271164
F2.443000078201294
tp6134
Rp6135
sg44
g41
(F0.2840000092983246
F0.6240000128746033
tp6136
Rp6137
sg47
g25
(g19
S'\x00\x00\xa8A'
p6138
tp6139
Rp6140
sbsS'W+6'
p6141
g2
(g3
g4
Ntp6142
Rp6143
(dp6144
g8
g9
(g10
(I0
tp6145
g12
tp6146
Rp6147
(I1
(I4
tp6148
g19
I00
S'\xe4\xf2\xebA\xaa\x02\x9bA\xd1\xdePAE\r\xa2@'
p6149
tp6150
bsg24
g25
(g19
S'\xee_\x81?'
p6151
tp6152
Rp6153
sg12
g9
(g10
(I0
tp6154
g12
tp6155
Rp6156
(I1
(I4
tp6157
g19
I00
S"\xf5\xb9\xb6?\x89C\xd6=3\xf9\xbd@\xbb'3A"
p6158
tp6159
bsg35
g25
(g19
S'\x00\x00\x94B'
p6160
tp6161
Rp6162
sg39
g6141
sg40
g41
(F-6.047999858856201
F5.577000141143799
tp6163
Rp6164
sg44
g41
(F-1.4210000038146973
F6.872000217437744
tp6165
Rp6166
sg47
g25
(g19
S'\x00\x00\x88B'
p6167
tp6168
Rp6169
sbs.